(dp1
S'output'
p2
S"<type 'exceptions.AttributeError'> 'Table' object has no attribute 'f_grupo'"
p3
sS'layer'
p4
S'C:\\Python\\web2py\\applications\\wpstarter_gh\\models\\menu.py'
p5
sS'code'
p6
S'# -*- coding: utf-8 -*-\n\n#########################################################################\n# Customize your APP title, subtitle and menus here\n#########################################################################\n\nresponse.logo_mini = IMG(_src=URL(\'static\', \'images/favicon.png\'), _alt=myconf.get(\'app.company\'), _width="30px")\n\n# response.logo = IMG(_src=URL(\'static\', \'images/favicon.png\'), _alt=myconf.get(\'app.company\'), _width="180px")\n# response.logo = SPAN(\'web\', B(2), \'py\', XML(\'&trade;&nbsp;\'))\nresponse.logo = myconf.get(\'app.abbreviation\')\n\n# default page title that appears in browser tabs and bookmarks\nresponse.title = \'%s: %s %s\' % (\n    myconf.get(\'app.abbreviation\'),\n    request.controller.replace(\'_\', \' \').title(),\n    request.function.replace(\'_\', \' \').title()\n)\n\nresponse.subtitle = \'\'\n\n# default view title that appears at top of default layout content section\nresponse.view_title = \'%s %s\' % (\n    request.controller.replace(\'_\', \' \').title(),\n    request.function.replace(\'_\', \' \').title()\n)\n\n# read more at http://dev.w3.org/html5/markup/meta.name.html\nresponse.meta.author = myconf.get(\'app.author\')\nresponse.meta.description = myconf.get(\'app.description\')\nresponse.meta.keywords = myconf.get(\'app.keywords\')\nresponse.meta.generator = myconf.get(\'app.generator\')\n\nresponse.company = myconf.get(\'app.company\')\nresponse.version = myconf.get(\'app.version\')\n\n# your http://google.com/analytics id\nresponse.google_analytics_id = None\n\n#====================================================================\n#novo menu - 26/12/2013\n\n\nfrom collections import defaultdict\n#carrega grupos pertencentes a esse user - funcao lista_grupos() em 0.py\nlist_groups = list_groups()\n#response.flash = lista_grupos\n#carrega o menu master numa vari[avel, pra nao precisar ficar acessando o BD toda hora\nmaster = db().select(db.t_menu_master.ALL,orderby=db.t_menu_master.f_order_master)\n#carrega to tabea do menu mua vari\xc3\xa1vel, contendo todos os dados para montagem do menu\ndetalhes = db().select(db.t_menu.ALL)\n#flitra os itens de menu fazendo join com a tabela t_menu_grupo - e flitrando com as que pertencem aos\n#gurpos do usu\xc3\xa1rio logado = lista_grupos\nmenu_detalhe = db(db.t_menu_group.f_grupo.belongs(list_groups)).select(db.t_menu.f_menu_master,\n   db.t_menu.id,\n        join=db.t_menu_group.on(db.t_menu_group.f_menu==db.t_menu.id),\n        groupby=db.t_menu.id,\n        orderby=db.t_menu.f_menu_order\n\n                                                                       )\n#atribui a vari\xc3\xa1vel Menu \xc3\xa0 um defaultlist - que \xc3\xa9 um dict que possuiu listas increment\xc3\xa1veis -\n#formando o Menu Master e Details\nmenu = defaultdict(list)\nmenu_new = dict()\n\n#itera sobre os tens de menu flitrados j\xc3\xa1 pelos grupos do usu\xc3\xa1rio detro da vari\xc3\xa1vel Menu\nfor row in menu_detalhe:\n    if int(row.id) not in menu[row.f_menu_master]:\n        menu[row.f_menu_master].append(int(row.id))\n        \nfor row in menu_detalhe:\n    if row.f_menu_master not in menu_new.keys():\n        menu_new[row.f_menu_master] = [row.id]\n    else:\n        menu_new[row.f_menu_master].append(int(row.id))\n        \n#print \'menu_new =>\', menu_new, \'\\n\'\n        \n        \nfor row in menu_detalhe:\n    if int(row.id) not in menu[row.f_menu_master]:\n        menu[row.f_menu_master].append(int(row.id))\n        \n#response.menu=menu_new\n#response.flash = menu\n\n#monta o menu propriamente dito em ciam da variavel que j\xc3\xa1 possui a estrutura do master detail\n#onde o m \xc3\xa9 o Id do Master e l a lista dos detalhes\n\nresponse.menu = []\nfor m, l in menu.iteritems():\n    master = db.t_menu_master[m]\n    item_master = {\'nome_master\':master[\'f_menu_master\'], \'iconemaster\': master[\'f_menu_master_icon\']}\n    internal_list=[]\n    for x in l:\n        menu_det = db.t_menu[x]\n        item = {\'nome\':menu_det[\'f_menu_detail\'],\'url\': URL(db.t_menu[x][\'f_menu_controller\'],menu_det[\'f_menu_function\']), \'icon\':menu_det[\'f_menu_detail_icon\']}\n        internal_list.append(item)\n    response.menu.append([item_master,internal_list])\n\n\'\'\'\nfor m in response.menu:\n    print \'m=>\', m, \'\\n\'\n    print \'m=>itens\', m[0][\'nome_master\'], m[0][\'iconemaster\'], \'\\n\\n\'\n\'\'\'\n\n    \n#print  XML(BEAUTIFY(response.menu))\n#print  response.menu\n#print \'\\n\'\n#print  menu\n\n'
p7
sS'snapshot'
p8
(dp9
S'exception'
p10
(dp11
S'__hash__'
p12
S"<method-wrapper '__hash__' of exceptions.AttributeError object>"
p13
sS'__setattr__'
p14
S"<method-wrapper '__setattr__' of exceptions.AttributeError object>"
p15
sS'__reduce_ex__'
p16
S'<built-in method __reduce_ex__ of exceptions.AttributeError object>'
p17
sS'__getslice__'
p18
S"<method-wrapper '__getslice__' of exceptions.AttributeError object>"
p19
sS'__getitem__'
p20
S"<method-wrapper '__getitem__' of exceptions.AttributeError object>"
p21
sS'__setstate__'
p22
S'<built-in method __setstate__ of exceptions.AttributeError object>'
p23
sS'__reduce__'
p24
S'<built-in method __reduce__ of exceptions.AttributeError object>'
p25
sS'__str__'
p26
S"<method-wrapper '__str__' of exceptions.AttributeError object>"
p27
sS'__format__'
p28
S'<built-in method __format__ of exceptions.AttributeError object>'
p29
sS'__getattribute__'
p30
S"<method-wrapper '__getattribute__' of exceptions.AttributeError object>"
p31
sS'__class__'
p32
S"<type 'exceptions.AttributeError'>"
p33
sS'__unicode__'
p34
S'<built-in method __unicode__ of exceptions.AttributeError object>'
p35
sS'__delattr__'
p36
S"<method-wrapper '__delattr__' of exceptions.AttributeError object>"
p37
sS'__subclasshook__'
p38
S'<built-in method __subclasshook__ of type object>'
p39
sS'__repr__'
p40
S"<method-wrapper '__repr__' of exceptions.AttributeError object>"
p41
sS'__dict__'
p42
S'{}'
p43
sS'args'
p44
S'("\'Table\' object has no attribute \'f_grupo\'",)'
p45
sS'__sizeof__'
p46
S'<built-in method __sizeof__ of exceptions.AttributeError object>'
p47
sS'__doc__'
p48
S"'Attribute not found.'"
p49
sS'__init__'
p50
S"<method-wrapper '__init__' of exceptions.AttributeError object>"
p51
sS'__new__'
p52
S'<built-in method __new__ of type object>'
p53
ssS'evalue'
p54
S"'Table' object has no attribute 'f_grupo'"
p55
sS'request'
p56
cgluon.html
XML_unpickle
p57
(S's\x8ed\x00\x00<div><table><tr><td style="font-weight:bold;vertical-align:top;">ajax</td><td style="vertical-align:top;">:</td><td><div>False</div></td></tr><tr><td style="font-weight:bold;vertical-align:top;">application</td><td style="vertical-align:top;">:</td><td><div>wpstarter_gh</div></td></tr><tr><td style="font-weight:bold;vertical-align:top;">args</td><td style="vertical-align:top;">:</td><td><div><table></table></div></td></tr><tr><td style="font-weight:bold;vertical-align:top;">cid</td><td style="vertical-align:top;">:</td><td><div>None</div></td></tr><tr><td style="font-weight:bold;vertical-align:top;">client</td><td style="vertical-align:top;">:</td><td><div>10.0.0.232</div></td></tr><tr><td style="font-weight:bold;vertical-align:top;">controller</td><td style="vertical-align:top;">:</td><td><div>appadmin</div></td></tr><tr><td style="font-weight:bold;vertical-align:top;">cookies</td><td style="vertical-align:top;">:</td><td><div><table><tr><td style="font-weight:bold;vertical-align:top;">session_id_admin</td><td style="vertical-align:top;">:</td><td><div>10.0.0.232-c263a0a4-9faf-4ca1-8797-260261686e08<table><tr><td style="font-weight:bold;vertical-align:top;">comment</td><td style="vertical-align:top;">:</td><td><div></div></td></tr><tr><td style="font-weight:bold;vertical-align:top;">domain</td><td style="vertical-align:top;">:</td><td><div></div></td></tr><tr><td style="font-weight:bold;vertical-align:top;">expires</td><td style="vertical-align:top;">:</td><td><div></div></td></tr><tr><td style="font-weight:bold;vertical-align:top;">httponly</td><td style="vertical-align:top;">:</td><td><div></div></td></tr><tr><td style="font-weight:bold;vertical-align:top;">max-age</td><td style="vertical-align:top;">:</td><td><div></div></td></tr><tr><td style="font-weight:bold;vertical-align:top;">path</td><td style="vertical-align:top;">:</td><td><div></div></td></tr><tr><td style="font-weight:bold;vertical-align:top;">secure</td><td style="vertical-align:top;">:</td><td><div></div></td></tr><tr><td style="font-weight:bold;vertical-align:top;">version</td><td style="vertical-align:top;">:</td><td><div></div></td></tr></table></div></td></tr><tr><td style="font-weight:bold;vertical-align:top;">session_id_malharia</td><td style="vertical-align:top;">:</td><td><div>10.0.0.232-eae73443-2ada-4bf7-b139-0c56d7c38995<table><tr><td style="font-weight:bold;vertical-align:top;">comment</td><td style="vertical-align:top;">:</td><td><div></div></td></tr><tr><td style="font-weight:bold;vertical-align:top;">domain</td><td style="vertical-align:top;">:</td><td><div></div></td></tr><tr><td style="font-weight:bold;vertical-align:top;">expires</td><td style="vertical-align:top;">:</td><td><div></div></td></tr><tr><td style="font-weight:bold;vertical-align:top;">httponly</td><td style="vertical-align:top;">:</td><td><div></div></td></tr><tr><td style="font-weight:bold;vertical-align:top;">max-age</td><td style="vertical-align:top;">:</td><td><div></div></td></tr><tr><td style="font-weight:bold;vertical-align:top;">path</td><td style="vertical-align:top;">:</td><td><div></div></td></tr><tr><td style="font-weight:bold;vertical-align:top;">secure</td><td style="vertical-align:top;">:</td><td><div></div></td></tr><tr><td style="font-weight:bold;vertical-align:top;">version</td><td style="vertical-align:top;">:</td><td><div></div></td></tr></table></div></td></tr><tr><td style="font-weight:bold;vertical-align:top;">session_id_wpstarter</td><td style="vertical-align:top;">:</td><td><div>10.0.0.232-cb7e23c0-91d6-439a-b464-4b4884b268a9<table><tr><td style="font-weight:bold;vertical-align:top;">comment</td><td style="vertical-align:top;">:</td><td><div></div></td></tr><tr><td style="font-weight:bold;vertical-align:top;">domain</td><td style="vertical-align:top;">:</td><td><div></div></td></tr><tr><td style="font-weight:bold;vertical-align:top;">expires</td><td style="vertical-align:top;">:</td><td><div></div></td></tr><tr><td style="font-weight:bold;vertical-align:top;">httponly</td><td style="vertical-align:top;">:</td><td><div></div></td></tr><tr><td style="font-weight:bold;vertical-align:top;">max-age</td><td style="vertical-align:top;">:</td><td><div></div></td></tr><tr><td style="font-weight:bold;vertical-align:top;">path</td><td style="vertical-align:top;">:</td><td><div></div></td></tr><tr><td style="font-weight:bold;vertical-align:top;">secure</td><td style="vertical-align:top;">:</td><td><div></div></td></tr><tr><td style="font-weight:bold;vertical-align:top;">version</td><td style="vertical-align:top;">:</td><td><div></div></td></tr></table></div></td></tr><tr><td style="font-weight:bold;vertical-align:top;">session_id_wpstarter_gh</td><td style="vertical-align:top;">:</td><td><div>10.0.0.232-cb63189d-1ded-4520-82ca-256ea6f410e8<table><tr><td style="font-weight:bold;vertical-align:top;">comment</td><td style="vertical-align:top;">:</td><td><div></div></td></tr><tr><td style="font-weight:bold;vertical-align:top;">domain</td><td style="vertical-align:top;">:</td><td><div></div></td></tr><tr><td style="font-weight:bold;vertical-align:top;">expires</td><td style="vertical-align:top;">:</td><td><div></div></td></tr><tr><td style="font-weight:bold;vertical-align:top;">httponly</td><td style="vertical-align:top;">:</td><td><div></div></td></tr><tr><td style="font-weight:bold;vertical-align:top;">max-age</td><td style="vertical-align:top;">:</td><td><div></div></td></tr><tr><td style="font-weight:bold;vertical-align:top;">path</td><td style="vertical-align:top;">:</td><td><div></div></td></tr><tr><td style="font-weight:bold;vertical-align:top;">secure</td><td style="vertical-align:top;">:</td><td><div></div></td></tr><tr><td style="font-weight:bold;vertical-align:top;">version</td><td style="vertical-align:top;">:</td><td><div></div></td></tr></table></div></td></tr></table></div></td></tr><tr><td style="font-weight:bold;vertical-align:top;">env</td><td style="vertical-align:top;">:</td><td><div><table><tr><td style="font-weight:bold;vertical-align:top;">HTTP_ACCEPT</td><td style="vertical-align:top;">:</td><td><div>text/html,application/xhtml+xml,application/xml;q=0.9,image/webp,*/*;q=0.8</div></td></tr><tr><td style="font-weight:bold;vertical-align:top;">HTTP_ACCEPT_ENCODING</td><td style="vertical-align:top;">:</td><td><div>gzip, deflate, sdch</div></td></tr><tr><td style="font-weight:bold;vertical-align:top;">HTTP_ACCEPT_LANGUAGE</td><td style="vertical-align:top;">:</td><td><div>pt-BR,pt;q=0.8,he;q=0.6,en-US;q=0.4,en;q=0.2</div></td></tr><tr><td style="font-weight:bold;vertical-align:top;">HTTP_CACHE_CONTROL</td><td style="vertical-align:top;">:</td><td><div>max-age=0</div></td></tr><tr><td style="font-weight:bold;vertical-align:top;">HTTP_CONNECTION</td><td style="vertical-align:top;">:</td><td><div>keep-alive</div></td></tr><tr><td style="font-weight:bold;vertical-align:top;">HTTP_COOKIE</td><td style="vertical-align:top;">:</td><td><div>session_id_malharia=10.0.0.232-eae73443-2ada-4bf7-b139-0c56d7c38995; session_id_wpstarter=10.0.0.232-cb7e23c0-91d6-439a-b464-4b4884b268a9; session_id_wpstarter_gh=10.0.0.232-cb63189d-1ded-4520-82ca-256ea6f410e8; session_id_admin=10.0.0.232-c263a0a4-9faf-4ca1-8797-260261686e08</div></td></tr><tr><td style="font-weight:bold;vertical-align:top;">HTTP_HOST</td><td style="vertical-align:top;">:</td><td><div>10.0.0.232:8050</div></td></tr><tr><td style="font-weight:bold;vertical-align:top;">HTTP_REFERER</td><td style="vertical-align:top;">:</td><td><div>http://10.0.0.232:8050/wpstarter_gh/default/user/login?_next=%2Fwpstarter_gh%2Fappadmin%2Fmanage</div></td></tr><tr><td style="font-weight:bold;vertical-align:top;">HTTP_UPGRADE_INSECURE_REQUESTS</td><td style="vertical-align:top;">:</td><td><div>1</div></td></tr><tr><td style="font-weight:bold;vertical-align:top;">HTTP_USER_AGENT</td><td style="vertical-align:top;">:</td><td><div>Mozilla/5.0 (Windows NT 6.1; Win64; x64) AppleWebKit/537.36 (KHTML, like Gecko) Chrome/58.0.3029.110 Safari/537.36</div></td></tr><tr><td style="font-weight:bold;vertical-align:top;">PATH_INFO</td><td style="vertical-align:top;">:</td><td><div>/wpstarter_gh/appadmin/manage</div></td></tr><tr><td style="font-weight:bold;vertical-align:top;">QUERY_STRING</td><td style="vertical-align:top;">:</td><td><div></div></td></tr><tr><td style="font-weight:bold;vertical-align:top;">REMOTE_ADDR</td><td style="vertical-align:top;">:</td><td><div>10.0.0.232</div></td></tr><tr><td style="font-weight:bold;vertical-align:top;">REMOTE_PORT</td><td style="vertical-align:top;">:</td><td><div>60503</div></td></tr><tr><td style="font-weight:bold;vertical-align:top;">REQUEST_METHOD</td><td style="vertical-align:top;">:</td><td><div>GET</div></td></tr><tr><td style="font-weight:bold;vertical-align:top;">SCRIPT_NAME</td><td style="vertical-align:top;">:</td><td><div></div></td></tr><tr><td style="font-weight:bold;vertical-align:top;">SERVER_NAME</td><td style="vertical-align:top;">:</td><td><div>BRG129FBT4</div></td></tr><tr><td style="font-weight:bold;vertical-align:top;">SERVER_PORT</td><td style="vertical-align:top;">:</td><td><div>8050</div></td></tr><tr><td style="font-weight:bold;vertical-align:top;">SERVER_PROTOCOL</td><td style="vertical-align:top;">:</td><td><div>HTTP/1.1</div></td></tr><tr><td style="font-weight:bold;vertical-align:top;">SERVER_SOFTWARE</td><td style="vertical-align:top;">:</td><td><div>Rocket 1.2.6</div></td></tr><tr><td style="font-weight:bold;vertical-align:top;">app_folders</td><td style="vertical-align:top;">:</td><td><div>set([&#x27;C:\\\\Python\\\\web2py\\\\applications\\\\admin\\\\&#x27;, &#x27;C:\\\\Python\\\\web2py\\\\applications\\\\wpstarter_gh\\\\&#x27;, &#x27;C:\\\\Python\\\\web2py\\\\applications\\\\wpstarter\\\\&#x27;])</div></td></tr><tr><td style="font-weight:bold;vertical-align:top;">applications_parent</td><td style="vertical-align:top;">:</td><td><div>C:\\Python\\web2py</div></td></tr><tr><td style="font-weight:bold;vertical-align:top;">cmd_args</td><td style="vertical-align:top;">:</td><td><div><table></table></div></td></tr><tr><td style="font-weight:bold;vertical-align:top;">cmd_options</td><td style="vertical-align:top;">:</td><td><div>&lt;Values at 0x4436448: {&#x27;verbose&#x27;: False, &#x27;ip&#x27;: &#x27;10.0.0.232&#x27;, &#x27;debuglevel&#x27;: 30, &#x27;with_scheduler&#x27;: False, &#x27;shutdown_timeout&#x27;: 5, &#x27;taskbar&#x27;: False, &#x27;with_coverage&#x27;: False, &#x27;pid_filename&#x27;: &#x27;httpserver.pid&#x27;, &#x27;maxthreads&#x27;: None, &#x27;softcron&#x27;: False, &#x27;server_name&#x27;: &#x27;BRG129FBT4&#x27;, &#x27;bpython&#x27;: False, &#x27;nogui&#x27;: False, &#x27;port&#x27;: 8050, &#x27;print_errors&#x27;: False, &#x27;extcron&#x27;: False, &#x27;runcron&#x27;: False, &#x27;run_system_tests&#x27;: False, &#x27;test&#x27;: None, &#x27;folder&#x27;: &#x27;C:\\\\Python\\\\web2py&#x27;, &#x27;config&#x27;: &#x27;&#x27;, &#x27;minthreads&#x27;: None, &#x27;shell&#x27;: None, &#x27;run&#x27;: &#x27;&#x27;, &#x27;log_filename&#x27;: &#x27;httpserver.log&#x27;, &#x27;profiler_dir&#x27;: None, &#x27;args&#x27;: [&#x27;&#x27;], &#x27;socket_timeout&#x27;: 5, &#x27;ssl_ca_certificate&#x27;: None, &#x27;scheduler&#x27;: None, &#x27;interfaces&#x27;: None, &#x27;ssl_private_key&#x27;: &#x27;&#x27;, &#x27;gae&#x27;: None, &#x27;password&#x27;: &#x27;******&#x27;, &#x27;request_queue_size&#x27;: 5, &#x27;ssl_certificate&#x27;: &#x27;&#x27;, &#x27;cronjob&#x27;: False, &#x27;numthreads&#x27;: None, &#x27;quiet&#x27;: False, &#x27;import_models&#x27;: False, &#x27;timeout&#x27;: 10, &#x27;plain&#x27;: False, &#x27;nobanner&#x27;: False}&gt;</div></td></tr><tr><td style="font-weight:bold;vertical-align:top;">db_sessions</td><td style="vertical-align:top;">:</td><td><div>set([])</div></td></tr><tr><td style="font-weight:bold;vertical-align:top;">debugging</td><td style="vertical-align:top;">:</td><td><div>False</div></td></tr><tr><td style="font-weight:bold;vertical-align:top;">gluon_parent</td><td style="vertical-align:top;">:</td><td><div>C:\\Python\\web2py</div></td></tr><tr><td style="font-weight:bold;vertical-align:top;">http_accept</td><td style="vertical-align:top;">:</td><td><div>text/html,application/xhtml+xml,application/xml;q=0.9,image/webp,*/*;q=0.8</div></td></tr><tr><td style="font-weight:bold;vertical-align:top;">http_accept_encoding</td><td style="vertical-align:top;">:</td><td><div>gzip, deflate, sdch</div></td></tr><tr><td style="font-weight:bold;vertical-align:top;">http_accept_language</td><td style="vertical-align:top;">:</td><td><div>pt-BR,pt;q=0.8,he;q=0.6,en-US;q=0.4,en;q=0.2</div></td></tr><tr><td style="font-weight:bold;vertical-align:top;">http_cache_control</td><td style="vertical-align:top;">:</td><td><div>max-age=0</div></td></tr><tr><td style="font-weight:bold;vertical-align:top;">http_connection</td><td style="vertical-align:top;">:</td><td><div>keep-alive</div></td></tr><tr><td style="font-weight:bold;vertical-align:top;">http_cookie</td><td style="vertical-align:top;">:</td><td><div>session_id_malharia=10.0.0.232-eae73443-2ada-4bf7-b139-0c56d7c38995; session_id_wpstarter=10.0.0.232-cb7e23c0-91d6-439a-b464-4b4884b268a9; session_id_wpstarter_gh=10.0.0.232-cb63189d-1ded-4520-82ca-256ea6f410e8; session_id_admin=10.0.0.232-c263a0a4-9faf-4ca1-8797-260261686e08</div></td></tr><tr><td style="font-weight:bold;vertical-align:top;">http_host</td><td style="vertical-align:top;">:</td><td><div>10.0.0.232:8050</div></td></tr><tr><td style="font-weight:bold;vertical-align:top;">http_referer</td><td style="vertical-align:top;">:</td><td><div>http://10.0.0.232:8050/wpstarter_gh/default/user/login?_next=%2Fwpstarter_gh%2Fappadmin%2Fmanage</div></td></tr><tr><td style="font-weight:bold;vertical-align:top;">http_upgrade_insecure_requests</td><td style="vertical-align:top;">:</td><td><div>1</div></td></tr><tr><td style="font-weight:bold;vertical-align:top;">http_user_agent</td><td style="vertical-align:top;">:</td><td><div>Mozilla/5.0 (Windows NT 6.1; Win64; x64) AppleWebKit/537.36 (KHTML, like Gecko) Chrome/58.0.3029.110 Safari/537.36</div></td></tr><tr><td style="font-weight:bold;vertical-align:top;">is_jython</td><td style="vertical-align:top;">:</td><td><div>False</div></td></tr><tr><td style="font-weight:bold;vertical-align:top;">is_pypy</td><td style="vertical-align:top;">:</td><td><div>False</div></td></tr><tr><td style="font-weight:bold;vertical-align:top;">is_source</td><td style="vertical-align:top;">:</td><td><div>True</div></td></tr><tr><td style="font-weight:bold;vertical-align:top;">local_hosts</td><td style="vertical-align:top;">:</td><td><div><table><tr><td><div>192.168.100.1</div></td></tr><tr><td><div>BRG129FBT4.central.com.br</div></td></tr><tr><td><div>BRG129FBT4</div></td></tr><tr><td><div>::ffff:127.0.0.1</div></td></tr><tr><td><div>::1</div></td></tr><tr><td><div>192.168.99.1</div></td></tr><tr><td><div>fe80::7082:fc3e:4875:2892%19</div></td></tr><tr><td><div>fe80::f49f:5833:35f2:1e03%18</div></td></tr><tr><td><div>10.0.0.232</div></td></tr><tr><td><div>127.0.0.1</div></td></tr></table></div></td></tr><tr><td style="font-weight:bold;vertical-align:top;">path_info</td><td style="vertical-align:top;">:</td><td><div>/wpstarter_gh/appadmin/manage</div></td></tr><tr><td style="font-weight:bold;vertical-align:top;">query_string</td><td style="vertical-align:top;">:</td><td><div></div></td></tr><tr><td style="font-weight:bold;vertical-align:top;">remote_addr</td><td style="vertical-align:top;">:</td><td><div>10.0.0.232</div></td></tr><tr><td style="font-weight:bold;vertical-align:top;">remote_port</td><td style="vertical-align:top;">:</td><td><div>60503</div></td></tr><tr><td style="font-weight:bold;vertical-align:top;">request_method</td><td style="vertical-align:top;">:</td><td><div>GET</div></td></tr><tr><td style="font-weight:bold;vertical-align:top;">request_uri</td><td style="vertical-align:top;">:</td><td><div>/wpstarter_gh/appadmin/manage</div></td></tr><tr><td style="font-weight:bold;vertical-align:top;">script_name</td><td style="vertical-align:top;">:</td><td><div></div></td></tr><tr><td style="font-weight:bold;vertical-align:top;">server_name</td><td style="vertical-align:top;">:</td><td><div>BRG129FBT4</div></td></tr><tr><td style="font-weight:bold;vertical-align:top;">server_port</td><td style="vertical-align:top;">:</td><td><div>8050</div></td></tr><tr><td style="font-weight:bold;vertical-align:top;">server_protocol</td><td style="vertical-align:top;">:</td><td><div>HTTP/1.1</div></td></tr><tr><td style="font-weight:bold;vertical-align:top;">server_software</td><td style="vertical-align:top;">:</td><td><div>Rocket 1.2.6</div></td></tr><tr><td style="font-weight:bold;vertical-align:top;">web2py_path</td><td style="vertical-align:top;">:</td><td><div>C:\\Python\\web2py</div></td></tr><tr><td style="font-weight:bold;vertical-align:top;">web2py_version</td><td style="vertical-align:top;">:</td><td><div>2.14.6-stable+timestamp.2016.05.10.00.21.47</div></td></tr><tr><td style="font-weight:bold;vertical-align:top;">wsgi.errors</td><td style="vertical-align:top;">:</td><td><div>&lt;open file &#x27;&lt;stderr&gt;&#x27;, mode &#x27;w&#x27; at 0x0000000001E22150&gt;</div></td></tr><tr><td style="font-weight:bold;vertical-align:top;">wsgi.file_wrapper</td><td style="vertical-align:top;">:</td><td><div>&lt;class wsgiref.util.FileWrapper at 0x00000000043C0AC8&gt;</div></td></tr><tr><td style="font-weight:bold;vertical-align:top;">wsgi.input</td><td style="vertical-align:top;">:</td><td><div>&lt;socket._fileobject object at 0x00000000093A2D68&gt;</div></td></tr><tr><td style="font-weight:bold;vertical-align:top;">wsgi.multiprocess</td><td style="vertical-align:top;">:</td><td><div>False</div></td></tr><tr><td style="font-weight:bold;vertical-align:top;">wsgi.multithread</td><td style="vertical-align:top;">:</td><td><div>True</div></td></tr><tr><td style="font-weight:bold;vertical-align:top;">wsgi.run_once</td><td style="vertical-align:top;">:</td><td><div>False</div></td></tr><tr><td style="font-weight:bold;vertical-align:top;">wsgi.url_scheme</td><td style="vertical-align:top;">:</td><td><div>http</div></td></tr><tr><td style="font-weight:bold;vertical-align:top;">wsgi.version</td><td style="vertical-align:top;">:</td><td><div><table><tr><td><div>1</div></td></tr><tr><td><div>0</div></td></tr></table></div></td></tr><tr><td style="font-weight:bold;vertical-align:top;">wsgi_errors</td><td style="vertical-align:top;">:</td><td><div>&lt;open file &#x27;&lt;stderr&gt;&#x27;, mode &#x27;w&#x27; at 0x0000000001E22150&gt;</div></td></tr><tr><td style="font-weight:bold;vertical-align:top;">wsgi_file_wrapper</td><td style="vertical-align:top;">:</td><td><div>&lt;class wsgiref.util.FileWrapper at 0x00000000043C0AC8&gt;</div></td></tr><tr><td style="font-weight:bold;vertical-align:top;">wsgi_input</td><td style="vertical-align:top;">:</td><td><div>&lt;socket._fileobject object at 0x00000000093A2D68&gt;</div></td></tr><tr><td style="font-weight:bold;vertical-align:top;">wsgi_multiprocess</td><td style="vertical-align:top;">:</td><td><div>False</div></td></tr><tr><td style="font-weight:bold;vertical-align:top;">wsgi_multithread</td><td style="vertical-align:top;">:</td><td><div>True</div></td></tr><tr><td style="font-weight:bold;vertical-align:top;">wsgi_run_once</td><td style="vertical-align:top;">:</td><td><div>False</div></td></tr><tr><td style="font-weight:bold;vertical-align:top;">wsgi_url_scheme</td><td style="vertical-align:top;">:</td><td><div>http</div></td></tr><tr><td style="font-weight:bold;vertical-align:top;">wsgi_version</td><td style="vertical-align:top;">:</td><td><div><table><tr><td><div>1</div></td></tr><tr><td><div>0</div></td></tr></table></div></td></tr></table></div></td></tr><tr><td style="font-weight:bold;vertical-align:top;">extension</td><td style="vertical-align:top;">:</td><td><div>html</div></td></tr><tr><td style="font-weight:bold;vertical-align:top;">folder</td><td style="vertical-align:top;">:</td><td><div>C:\\Python\\web2py\\applications\\wpstarter_gh\\</div></td></tr><tr><td style="font-weight:bold;vertical-align:top;">function</td><td style="vertical-align:top;">:</td><td><div>manage</div></td></tr><tr><td style="font-weight:bold;vertical-align:top;">global_settings</td><td style="vertical-align:top;">:</td><td><div><table><tr><td style="font-weight:bold;vertical-align:top;">app_folders</td><td style="vertical-align:top;">:</td><td><div>set([&#x27;C:\\\\Python\\\\web2py\\\\applications\\\\admin\\\\&#x27;, &#x27;C:\\\\Python\\\\web2py\\\\applications\\\\wpstarter_gh\\\\&#x27;, &#x27;C:\\\\Python\\\\web2py\\\\applications\\\\wpstarter\\\\&#x27;])</div></td></tr><tr><td style="font-weight:bold;vertical-align:top;">applications_parent</td><td style="vertical-align:top;">:</td><td><div>C:\\Python\\web2py</div></td></tr><tr><td style="font-weight:bold;vertical-align:top;">cmd_args</td><td style="vertical-align:top;">:</td><td><div><table></table></div></td></tr><tr><td style="font-weight:bold;vertical-align:top;">cmd_options</td><td style="vertical-align:top;">:</td><td><div>&lt;Values at 0x4436448: {&#x27;verbose&#x27;: False, &#x27;ip&#x27;: &#x27;10.0.0.232&#x27;, &#x27;debuglevel&#x27;: 30, &#x27;with_scheduler&#x27;: False, &#x27;shutdown_timeout&#x27;: 5, &#x27;taskbar&#x27;: False, &#x27;with_coverage&#x27;: False, &#x27;pid_filename&#x27;: &#x27;httpserver.pid&#x27;, &#x27;maxthreads&#x27;: None, &#x27;softcron&#x27;: False, &#x27;server_name&#x27;: &#x27;BRG129FBT4&#x27;, &#x27;bpython&#x27;: False, &#x27;nogui&#x27;: False, &#x27;port&#x27;: 8050, &#x27;print_errors&#x27;: False, &#x27;extcron&#x27;: False, &#x27;runcron&#x27;: False, &#x27;run_system_tests&#x27;: False, &#x27;test&#x27;: None, &#x27;folder&#x27;: &#x27;C:\\\\Python\\\\web2py&#x27;, &#x27;config&#x27;: &#x27;&#x27;, &#x27;minthreads&#x27;: None, &#x27;shell&#x27;: None, &#x27;run&#x27;: &#x27;&#x27;, &#x27;log_filename&#x27;: &#x27;httpserver.log&#x27;, &#x27;profiler_dir&#x27;: None, &#x27;args&#x27;: [&#x27;&#x27;], &#x27;socket_timeout&#x27;: 5, &#x27;ssl_ca_certificate&#x27;: None, &#x27;scheduler&#x27;: None, &#x27;interfaces&#x27;: None, &#x27;ssl_private_key&#x27;: &#x27;&#x27;, &#x27;gae&#x27;: None, &#x27;password&#x27;: &#x27;******&#x27;, &#x27;request_queue_size&#x27;: 5, &#x27;ssl_certificate&#x27;: &#x27;&#x27;, &#x27;cronjob&#x27;: False, &#x27;numthreads&#x27;: None, &#x27;quiet&#x27;: False, &#x27;import_models&#x27;: False, &#x27;timeout&#x27;: 10, &#x27;plain&#x27;: False, &#x27;nobanner&#x27;: False}&gt;</div></td></tr><tr><td style="font-weight:bold;vertical-align:top;">db_sessions</td><td style="vertical-align:top;">:</td><td><div>set([])</div></td></tr><tr><td style="font-weight:bold;vertical-align:top;">debugging</td><td style="vertical-align:top;">:</td><td><div>False</div></td></tr><tr><td style="font-weight:bold;vertical-align:top;">gluon_parent</td><td style="vertical-align:top;">:</td><td><div>C:\\Python\\web2py</div></td></tr><tr><td style="font-weight:bold;vertical-align:top;">is_jython</td><td style="vertical-align:top;">:</td><td><div>False</div></td></tr><tr><td style="font-weight:bold;vertical-align:top;">is_pypy</td><td style="vertical-align:top;">:</td><td><div>False</div></td></tr><tr><td style="font-weight:bold;vertical-align:top;">is_source</td><td style="vertical-align:top;">:</td><td><div>True</div></td></tr><tr><td style="font-weight:bold;vertical-align:top;">local_hosts</td><td style="vertical-align:top;">:</td><td><div><table><tr><td><div>192.168.100.1</div></td></tr><tr><td><div>BRG129FBT4.central.com.br</div></td></tr><tr><td><div>BRG129FBT4</div></td></tr><tr><td><div>::ffff:127.0.0.1</div></td></tr><tr><td><div>::1</div></td></tr><tr><td><div>192.168.99.1</div></td></tr><tr><td><div>fe80::7082:fc3e:4875:2892%19</div></td></tr><tr><td><div>fe80::f49f:5833:35f2:1e03%18</div></td></tr><tr><td><div>10.0.0.232</div></td></tr><tr><td><div>127.0.0.1</div></td></tr></table></div></td></tr><tr><td style="font-weight:bold;vertical-align:top;">web2py_version</td><td style="vertical-align:top;">:</td><td><div>2.14.6-stable+timestamp.2016.05.10.00.21.47</div></td></tr></table></div></td></tr><tr><td style="font-weight:bold;vertical-align:top;">is_https</td><td style="vertical-align:top;">:</td><td><div>False</div></td></tr><tr><td style="font-weight:bold;vertical-align:top;">is_local</td><td style="vertical-align:top;">:</td><td><div>True</div></td></tr><tr><td style="font-weight:bold;vertical-align:top;">is_restful</td><td style="vertical-align:top;">:</td><td><div>False</div></td></tr><tr><td style="font-weight:bold;vertical-align:top;">is_scheduler</td><td style="vertical-align:top;">:</td><td><div>False</div></td></tr><tr><td style="font-weight:bold;vertical-align:top;">is_shell</td><td style="vertical-align:top;">:</td><td><div>False</div></td></tr><tr><td style="font-weight:bold;vertical-align:top;">now</td><td style="vertical-align:top;">:</td><td><div>datetime.datetime(2017, 5, 15, 17, 5, 43, 867000)</div></td></tr><tr><td style="font-weight:bold;vertical-align:top;">raw_args</td><td style="vertical-align:top;">:</td><td><div></div></td></tr><tr><td style="font-weight:bold;vertical-align:top;">raw_extension</td><td style="vertical-align:top;">:</td><td><div>None</div></td></tr><tr><td style="font-weight:bold;vertical-align:top;">url</td><td style="vertical-align:top;">:</td><td><div>/wpstarter_gh/appadmin/manage</div></td></tr><tr><td style="font-weight:bold;vertical-align:top;">utcnow</td><td style="vertical-align:top;">:</td><td><div>datetime.datetime(2017, 5, 15, 17, 5, 43, 867000)</div></td></tr><tr><td style="font-weight:bold;vertical-align:top;">wsgi</td><td style="vertical-align:top;">:</td><td><div>&lt;gluon.main.LazyWSGI object at 0x000000000B0711D0&gt;</div></td></tr></table></div>'
tRp58
sS'frames'
p59
(lp60
(dp61
S'file'
p62
S'C:\\Python\\web2py\\gluon\\restricted.py'
p63
sS'dump'
p64
(dp65
S'environment'
p66
S"{'A': <class 'gluon.html.A'>, 'ANY_OF': <class 'gluon.validators.ANY_OF'>, 'ASSIGNJS': <function ASSIGNJS>, 'AppConfig': <function AppConfig>, 'Auth': <class 'gluon.tools.Auth'>, 'B': <class 'gluon.html.B'>, 'BEAUTIFY': <class 'gluon.html.BEAUTIFY'>, 'BODY': <class 'gluon.html.BODY'>, 'BR': <class 'gluon.html.BR'>, 'BUTTON': <class 'gluon.html.BUTTON'>, ...}"
p67
sS'ccode'
p68
S'<code object <module> at 0000000007E29030, file ...pplications\\wpstarter_gh\\models\\menu.py", line 7>'
p69
ssS'lnum'
p70
I227
sS'lines'
p71
(dp72
I224
S'            ccode = code'
p73
sI225
S'        else:'
p74
sI226
S'            ccode = compile2(code, layer)'
p75
sI227
S'        exec ccode in environment'
p76
sI228
S'    except HTTP:'
p77
sI229
S'        raise'
p78
sI230
S'    except RestrictedError:'
p79
sI231
S'        # do not encapsulate (obfuscate) the original RestrictedError'
p80
sI222
S'    try:'
p81
sI223
S'        if isinstance(code, types.CodeType):'
p82
ssS'call'
p83
S'(code="# -*- coding: utf-8 -*-\\n\\n#######################...\\n#print  response.menu\\n#print \'\\\\n\'\\n#print  menu\\n\\n", environment={\'A\': <class \'gluon.html.A\'>, \'ANY_OF\': <class \'gluon.validators.ANY_OF\'>, \'ASSIGNJS\': <function ASSIGNJS>, \'AppConfig\': <function AppConfig>, \'Auth\': <class \'gluon.tools.Auth\'>, \'B\': <class \'gluon.html.B\'>, \'BEAUTIFY\': <class \'gluon.html.BEAUTIFY\'>, \'BODY\': <class \'gluon.html.BODY\'>, \'BR\': <class \'gluon.html.BR\'>, \'BUTTON\': <class \'gluon.html.BUTTON\'>, ...}, layer=r\'C:\\Python\\web2py\\applications\\wpstarter_gh\\models\\menu.py\')'
p84
sS'func'
p85
S'restricted'
p86
sa(dp87
g62
S'C:\\Python\\web2py\\applications\\wpstarter_gh\\models\\menu.py'
p88
sg64
(dp89
S'orderby'
p90
S'undefined'
p91
sS'db.t_menu.f_menu_order'
p92
S'<pydal.objects.Field object>'
p93
sS'join'
p94
g91
sS'db.t_menu_group.f_grupo'
p95
g91
sS'db'
p96
S'<DAL uri="sqlite://storage.sqlite">'
p97
sS'db.t_menu_group'
p98
S'<Table t_menu_group (id, f_menu, f_group)>'
p99
sS').select'
p100
g91
sS'menu_detalhe'
p101
g91
sS'list_groups'
p102
S'[1, 2]'
p103
sS'db.t_menu_group.f_menu'
p104
S'<pydal.objects.Field object>'
p105
sS'db.t_menu'
p106
S'<Table t_menu (id, f_menu_master, f_menu_detail,...ler, f_menu_function, f_menu_order, f_need_sign)>'
p107
sS'db.t_menu_group.on'
p108
S'<bound method Table.on of <Table t_menu_group (id, f_menu, f_group)>>'
p109
sS'db.t_menu.f_menu_master'
p110
S'<pydal.objects.Field object>'
p111
sS'db.t_menu.id'
p112
S'<pydal.objects.Field object>'
p113
sS'groupby'
p114
g91
ssg70
I54
sg71
(dp115
I49
S'master = db().select(db.t_menu_master.ALL,orderby=db.t_menu_master.f_order_master)'
p116
sI50
S'#carrega to tabea do menu mua vari\xc3\xa1vel, contendo todos os dados para montagem do menu'
p117
sI51
S'detalhes = db().select(db.t_menu.ALL)'
p118
sI52
S'#flitra os itens de menu fazendo join com a tabela t_menu_grupo - e flitrando com as que pertencem aos'
p119
sI53
S'#gurpos do usu\xc3\xa1rio logado = lista_grupos'
p120
sI54
S'menu_detalhe = db(db.t_menu_group.f_grupo.belongs(list_groups)).select(db.t_menu.f_menu_master,'
p121
sI55
S'   db.t_menu.id,'
p122
sI56
S'        join=db.t_menu_group.on(db.t_menu_group.f_menu==db.t_menu.id),'
p123
sI57
S'        groupby=db.t_menu.id,'
p124
sI58
S'        orderby=db.t_menu.f_menu_order'
p125
ssg83
S'()'
p126
sg85
S'<module>'
p127
sasS'pyver'
p128
S'Python 2.7.12: C:\\Python27\\python.exe (prefix: C:\\Python27)'
p129
sS'session'
p130
g57
(S's\xc4\x11\x00\x00<div><table><tr><td style="font-weight:bold;vertical-align:top;">auth</td><td style="vertical-align:top;">:</td><td><div><table><tr><td style="font-weight:bold;vertical-align:top;">expiration</td><td style="vertical-align:top;">:</td><td><div>86400</div></td></tr><tr><td style="font-weight:bold;vertical-align:top;">hmac_key</td><td style="vertical-align:top;">:</td><td><div>c1e5782a-eb34-405e-a2ee-75e7db1260b6</div></td></tr><tr><td style="font-weight:bold;vertical-align:top;">last_visit</td><td style="vertical-align:top;">:</td><td><div>datetime.datetime(2017, 5, 15, 17, 3, 56, 544000)</div></td></tr><tr><td style="font-weight:bold;vertical-align:top;">remember_me</td><td style="vertical-align:top;">:</td><td><div>False</div></td></tr><tr><td style="font-weight:bold;vertical-align:top;">user</td><td style="vertical-align:top;">:</td><td><div><table><tr><td style="font-weight:bold;vertical-align:top;">bookmarks</td><td style="vertical-align:top;">:</td><td><div>{}</div></td></tr><tr><td style="font-weight:bold;vertical-align:top;">created_by</td><td style="vertical-align:top;">:</td><td><div>None</div></td></tr><tr><td style="font-weight:bold;vertical-align:top;">created_on</td><td style="vertical-align:top;">:</td><td><div>datetime.datetime(2017, 5, 13, 22, 45, 43)</div></td></tr><tr><td style="font-weight:bold;vertical-align:top;">email</td><td style="vertical-align:top;">:</td><td><div>admin@domain.com</div></td></tr><tr><td style="font-weight:bold;vertical-align:top;">first_name</td><td style="vertical-align:top;">:</td><td><div>Admin</div></td></tr><tr><td style="font-weight:bold;vertical-align:top;">id</td><td style="vertical-align:top;">:</td><td><div>1L</div></td></tr><tr><td style="font-weight:bold;vertical-align:top;">is_active</td><td style="vertical-align:top;">:</td><td><div>True</div></td></tr><tr><td style="font-weight:bold;vertical-align:top;">last_name</td><td style="vertical-align:top;">:</td><td><div>User</div></td></tr><tr><td style="font-weight:bold;vertical-align:top;">modified_by</td><td style="vertical-align:top;">:</td><td><div>None</div></td></tr><tr><td style="font-weight:bold;vertical-align:top;">modified_on</td><td style="vertical-align:top;">:</td><td><div>datetime.datetime(2017, 5, 13, 22, 45, 43)</div></td></tr><tr><td style="font-weight:bold;vertical-align:top;">registration_id</td><td style="vertical-align:top;">:</td><td><div></div></td></tr><tr><td style="font-weight:bold;vertical-align:top;">registration_key</td><td style="vertical-align:top;">:</td><td><div></div></td></tr><tr><td style="font-weight:bold;vertical-align:top;">reset_password_key</td><td style="vertical-align:top;">:</td><td><div></div></td></tr><tr><td style="font-weight:bold;vertical-align:top;">username</td><td style="vertical-align:top;">:</td><td><div>admin</div></td></tr></table></div></td></tr><tr><td style="font-weight:bold;vertical-align:top;">user_groups</td><td style="vertical-align:top;">:</td><td><div><table><tr><td style="font-weight:bold;vertical-align:top;">1</td><td style="vertical-align:top;">:</td><td><div>Super Admin</div></td></tr><tr><td style="font-weight:bold;vertical-align:top;">2</td><td style="vertical-align:top;">:</td><td><div>Admin</div></td></tr></table></div></td></tr></table></div></td></tr><tr><td style="font-weight:bold;vertical-align:top;">breadcrumbs</td><td style="vertical-align:top;">:</td><td><div><table><tr><td><div><table><tr><td style="font-weight:bold;vertical-align:top;">icon</td><td style="vertical-align:top;">:</td><td><div>database</div></td></tr><tr><td style="font-weight:bold;vertical-align:top;">label</td><td style="vertical-align:top;">:</td><td><div>Manage Db</div></td></tr><tr><td style="font-weight:bold;vertical-align:top;">url</td><td style="vertical-align:top;">:</td><td><div>/wpstarter_gh/appadmin/manage/db</div></td></tr></table></div></td></tr><tr><td><div><table><tr><td style="font-weight:bold;vertical-align:top;">icon</td><td style="vertical-align:top;">:</td><td><div>bookmark</div></td></tr><tr><td style="font-weight:bold;vertical-align:top;">label</td><td style="vertical-align:top;">:</td><td><div>User</div></td></tr><tr><td style="font-weight:bold;vertical-align:top;">url</td><td style="vertical-align:top;">:</td><td><div>/wpstarter_gh/default/user/login?_next=%2Fwpstarter_gh%2Fappadmin%2Fmanage</div></td></tr></table></div></td></tr></table></div></td></tr><tr><td style="font-weight:bold;vertical-align:top;">flash</td><td style="vertical-align:top;">:</td><td><div>None</div></td></tr></table></div>'
tRp131
sS'etype'
p132
S"<type 'exceptions.AttributeError'>"
p133
sS'date'
p134
S'Mon May 15 14:05:43 2017'
p135
sS'response'
p136
g57
(S's\xfc\x1e\x00\x00<div><table><tr><td style="font-weight:bold;vertical-align:top;">body</td><td style="vertical-align:top;">:</td><td><div>&lt;cStringIO.StringO object at 0x000000000B071650&gt;</div></td></tr><tr><td style="font-weight:bold;vertical-align:top;">company</td><td style="vertical-align:top;">:</td><td><div>Company ABC</div></td></tr><tr><td style="font-weight:bold;vertical-align:top;">cookies</td><td style="vertical-align:top;">:</td><td><div><table><tr><td style="font-weight:bold;vertical-align:top;">session_id_wpstarter_gh</td><td style="vertical-align:top;">:</td><td><div>10.0.0.232-cb63189d-1ded-4520-82ca-256ea6f410e8<table><tr><td style="font-weight:bold;vertical-align:top;">comment</td><td style="vertical-align:top;">:</td><td><div></div></td></tr><tr><td style="font-weight:bold;vertical-align:top;">domain</td><td style="vertical-align:top;">:</td><td><div></div></td></tr><tr><td style="font-weight:bold;vertical-align:top;">expires</td><td style="vertical-align:top;">:</td><td><div></div></td></tr><tr><td style="font-weight:bold;vertical-align:top;">httponly</td><td style="vertical-align:top;">:</td><td><div></div></td></tr><tr><td style="font-weight:bold;vertical-align:top;">max-age</td><td style="vertical-align:top;">:</td><td><div></div></td></tr><tr><td style="font-weight:bold;vertical-align:top;">path</td><td style="vertical-align:top;">:</td><td><div>/</div></td></tr><tr><td style="font-weight:bold;vertical-align:top;">secure</td><td style="vertical-align:top;">:</td><td><div></div></td></tr><tr><td style="font-weight:bold;vertical-align:top;">version</td><td style="vertical-align:top;">:</td><td><div></div></td></tr></table></div></td></tr></table></div></td></tr><tr><td style="font-weight:bold;vertical-align:top;">delimiters</td><td style="vertical-align:top;">:</td><td><div><table><tr><td><div>{{</div></td></tr><tr><td><div>}}</div></td></tr></table></div></td></tr><tr><td style="font-weight:bold;vertical-align:top;">files</td><td style="vertical-align:top;">:</td><td><div><table></table></div></td></tr><tr><td style="font-weight:bold;vertical-align:top;">flash</td><td style="vertical-align:top;">:</td><td><div>Logged in</div></td></tr><tr><td style="font-weight:bold;vertical-align:top;">form_label_separator</td><td style="vertical-align:top;">:</td><td><div></div></td></tr><tr><td style="font-weight:bold;vertical-align:top;">formstyle</td><td style="vertical-align:top;">:</td><td><div>bootstrap3_inline</div></td></tr><tr><td style="font-weight:bold;vertical-align:top;">generic_patterns</td><td style="vertical-align:top;">:</td><td><div><table><tr><td><div>*</div></td></tr></table></div></td></tr><tr><td style="font-weight:bold;vertical-align:top;">google_analytics_id</td><td style="vertical-align:top;">:</td><td><div>None</div></td></tr><tr><td style="font-weight:bold;vertical-align:top;">headers</td><td style="vertical-align:top;">:</td><td><div><table><tr><td style="font-weight:bold;vertical-align:top;">X-Powered-By</td><td style="vertical-align:top;">:</td><td><div>web2py</div></td></tr></table></div></td></tr><tr><td style="font-weight:bold;vertical-align:top;">logo</td><td style="vertical-align:top;">:</td><td><div>w2p</div></td></tr><tr><td style="font-weight:bold;vertical-align:top;">logo_mini</td><td style="vertical-align:top;">:</td><td><div><img alt="Company ABC" src="/wpstarter_gh/static/images/favicon.png" width="30px" /></div></td></tr><tr><td style="font-weight:bold;vertical-align:top;">menu</td><td style="vertical-align:top;">:</td><td><div><table></table></div></td></tr><tr><td style="font-weight:bold;vertical-align:top;">meta</td><td style="vertical-align:top;">:</td><td><div><table><tr><td style="font-weight:bold;vertical-align:top;">author</td><td style="vertical-align:top;">:</td><td><div>Your Name &lt;you@example.com&gt;</div></td></tr><tr><td style="font-weight:bold;vertical-align:top;">description</td><td style="vertical-align:top;">:</td><td><div>a cool new app</div></td></tr><tr><td style="font-weight:bold;vertical-align:top;">generator</td><td style="vertical-align:top;">:</td><td><div>Web2py Web Framework</div></td></tr><tr><td style="font-weight:bold;vertical-align:top;">keywords</td><td style="vertical-align:top;">:</td><td><div><table><tr><td><div>web2py</div></td></tr><tr><td><div>python</div></td></tr><tr><td><div>framework</div></td></tr></table></div></td></tr></table></div></td></tr><tr><td style="font-weight:bold;vertical-align:top;">models_to_run</td><td style="vertical-align:top;">:</td><td><div><table><tr><td><div>^\\w+\\.py$</div></td></tr><tr><td><div>^appadmin/\\w+\\.py$</div></td></tr><tr><td><div>^appadmin/manage/\\w+\\.py$</div></td></tr></table></div></td></tr><tr><td style="font-weight:bold;vertical-align:top;">postprocessing</td><td style="vertical-align:top;">:</td><td><div><table></table></div></td></tr><tr><td style="font-weight:bold;vertical-align:top;">session_client</td><td style="vertical-align:top;">:</td><td><div>10.0.0.232</div></td></tr><tr><td style="font-weight:bold;vertical-align:top;">session_cookie_compression_level</td><td style="vertical-align:top;">:</td><td><div>None</div></td></tr><tr><td style="font-weight:bold;vertical-align:top;">session_cookie_expires</td><td style="vertical-align:top;">:</td><td><div>None</div></td></tr><tr><td style="font-weight:bold;vertical-align:top;">session_data_name</td><td style="vertical-align:top;">:</td><td><div>session_data_wpstarter_gh</div></td></tr><tr><td style="font-weight:bold;vertical-align:top;">session_file</td><td style="vertical-align:top;">:</td><td><div>&lt;open file &#x27;C:\\\\Python\\\\web2py\\\\applications\\\\wpstarter_gh\\\\sessions\\\\195\\\\0b8\\\\10.0.0.232-cb63189d-1ded-4520-82ca-256ea6f410e8&#x27;, mode &#x27;rb+&#x27; at 0x0000000009CB7300&gt;</div></td></tr><tr><td style="font-weight:bold;vertical-align:top;">session_filename</td><td style="vertical-align:top;">:</td><td><div>C:\\Python\\web2py\\applications\\wpstarter_gh\\sessions\\10.0.0.232-cb63189d-1ded-4520-82ca-256ea6f410e8</div></td></tr><tr><td style="font-weight:bold;vertical-align:top;">session_hash</td><td style="vertical-align:top;">:</td><td><div>1b67d70334dd4e08bc425bbfd0e40fd2</div></td></tr><tr><td style="font-weight:bold;vertical-align:top;">session_id</td><td style="vertical-align:top;">:</td><td><div>10.0.0.232-cb63189d-1ded-4520-82ca-256ea6f410e8</div></td></tr><tr><td style="font-weight:bold;vertical-align:top;">session_id_name</td><td style="vertical-align:top;">:</td><td><div>session_id_wpstarter_gh</div></td></tr><tr><td style="font-weight:bold;vertical-align:top;">session_locked</td><td style="vertical-align:top;">:</td><td><div>True</div></td></tr><tr><td style="font-weight:bold;vertical-align:top;">session_masterapp</td><td style="vertical-align:top;">:</td><td><div>wpstarter_gh</div></td></tr><tr><td style="font-weight:bold;vertical-align:top;">session_new</td><td style="vertical-align:top;">:</td><td><div>False</div></td></tr><tr><td style="font-weight:bold;vertical-align:top;">session_storage_type</td><td style="vertical-align:top;">:</td><td><div>file</div></td></tr><tr><td style="font-weight:bold;vertical-align:top;">status</td><td style="vertical-align:top;">:</td><td><div>200</div></td></tr><tr><td style="font-weight:bold;vertical-align:top;">subtitle</td><td style="vertical-align:top;">:</td><td><div></div></td></tr><tr><td style="font-weight:bold;vertical-align:top;">title</td><td style="vertical-align:top;">:</td><td><div>w2p: Appadmin Manage</div></td></tr><tr><td style="font-weight:bold;vertical-align:top;">version</td><td style="vertical-align:top;">:</td><td><div>1.0</div></td></tr><tr><td style="font-weight:bold;vertical-align:top;">view</td><td style="vertical-align:top;">:</td><td><div>appadmin/manage.html</div></td></tr><tr><td style="font-weight:bold;vertical-align:top;">view_title</td><td style="vertical-align:top;">:</td><td><div>Appadmin Manage</div></td></tr></table></div>'
tRp137
sS'locals'
p138
(dp139
S'Service'
p140
S"<class 'gluon.tools.Service'>"
p141
sS'is_user_member'
p142
S'<function is_user_member>'
p143
sS'OBJECT'
p144
S"<class 'gluon.html.OBJECT'>"
p145
sS'LOAD'
p146
S'<function LOAD>'
p147
sS'track_changes'
p148
S'<function track_changes>'
p149
sS'datetime'
p150
S"<module 'datetime' (built-in)>"
p151
sg130
S"<Storage {'_web2py_grid_referrer_t_menu_group_gr...tarter_gh/appadmin/manage.load/db/4/auth_event'}>"
p152
sS'LINK'
p153
S"<class 'gluon.html.LINK'>"
p154
sS'BR'
p155
S"<class 'gluon.html.BR'>"
p156
sS'local_import'
p157
S'<function <lambda>>'
p158
sS'OPTGROUP'
p159
S"<class 'gluon.html.OPTGROUP'>"
p160
sS'LI'
p161
S"<class 'gluon.html.LI'>"
p162
sS'PRE'
p163
S"<class 'gluon.html.PRE'>"
p164
sS'IS_INT_IN_RANGE'
p165
S"<class 'gluon.validators.IS_INT_IN_RANGE'>"
p166
sS'IS_LOWER'
p167
S"<class 'gluon.validators.IS_LOWER'>"
p168
sS'IS_STRONG'
p169
S"<class 'gluon.validators.IS_STRONG'>"
p170
sS'cache'
p171
S'<gluon.cache.Cache object>'
p172
sS'IS_IN_DB'
p173
S"<class 'gluon.validators.IS_IN_DB'>"
p174
sS'TAG'
p175
S'<gluon.html.__TAG__ object>'
p176
sS'SQLField'
p177
S"<class 'pydal.objects.Field'>"
p178
sS'mail'
p179
S'<gluon.tools.Mail object>'
p180
sS'BODY'
p181
S"<class 'gluon.html.BODY'>"
p182
sS'IS_DATE_IN_RANGE'
p183
S"<class 'gluon.validators.IS_DATE_IN_RANGE'>"
p184
sS'detalhes'
p185
S'<Rows (1)>'
p186
sS'TH'
p187
S"<class 'gluon.html.TH'>"
p188
sS'URL'
p189
S'<function URL>'
p190
sS'__file__'
p191
S"r'C:\\Python\\web2py\\applications\\wpstarter_gh\\models\\menu.py'"
p192
sS'db'
p193
S'<DAL uri="sqlite://storage.sqlite">'
p194
sS'auth'
p195
S'<gluon.tools.Auth object>'
p196
sS'datepicker_widget'
p197
S'<function datepicker_widget>'
p198
sS'P'
S"<class 'gluon.html.P'>"
p199
sS'TFOOT'
p200
S"<class 'gluon.html.TFOOT'>"
p201
sS'XHTML'
p202
S"<class 'gluon.html.XHTML'>"
p203
sS'SQLDB'
p204
S"<class 'pydal.base.DAL'>"
p205
sS'ON'
p206
S'True'
p207
sS'OL'
p208
S"<class 'gluon.html.OL'>"
p209
sS'TEXTAREA'
p210
S"<class 'gluon.html.TEXTAREA'>"
p211
sS'MENU'
p212
S"<class 'gluon.html.MENU'>"
p213
sS'dal_list_booleans'
p214
S"[('Y', 'Yes'), ('N', 'No')]"
p215
sS'dal_list_states'
p216
S"[('AL', 'Alabama, USA'), ('AK', 'Alaska, USA'), ('AB', 'Alberta, CAN'), ('AS', 'American Samoa, USA'), ('AZ', 'Arizona, USA'), ('AR', 'Arkansas, USA'), ('BC', 'British Columbia, CAN'), ('CA', 'California, USA'), ('CO', 'Colorado, USA'), ('CT', 'Connecticut, USA'), ('DE', 'Delaware, USA'), ('FL', 'Florida, USA'), ('GA', 'Georgia, USA'), ('GU', 'Guam, USA'), ('HI', 'Hawaii, USA'), ('ID', 'Idaho, USA'), ('IL', 'Illinois, USA'), ('IN', 'Indiana, USA'), ('IA', 'Iowa, USA'), ('KS', 'Kansas, USA'), ...]"
p217
sS'defaultdict'
p218
S"<type 'collections.defaultdict'>"
p219
sS'CODE'
p220
S"<class 'gluon.html.CODE'>"
p221
sS'HTTP'
p222
S"<class 'gluon.http.HTTP'>"
p223
sS'HR'
p224
S"<class 'gluon.html.HR'>"
p225
sS'IS_DATETIME'
p226
S"<class 'gluon.validators.IS_DATETIME'>"
p227
sS'HEAD'
p228
S"<class 'gluon.html.HEAD'>"
p229
sS'LABEL'
p230
S"<class 'gluon.html.LABEL'>"
p231
sS'CLEANUP'
p232
S"<class 'gluon.validators.CLEANUP'>"
p233
sS'CONTEXT'
p234
S"['Dog', 'Owner', 'Dog Lover']"
p235
sS'plugins'
p236
S'<gluon.tools.PluginManager object>'
p237
sS'SELECT'
p238
S"<class 'gluon.html.SELECT'>"
p239
sS'dal_list_genders'
p240
S"[('F', 'Female'), ('M', 'Male')]"
p241
sS'CENTER'
p242
S"<class 'gluon.html.CENTER'>"
p243
sS'prettydate'
p244
S'<function prettydate>'
p245
sS'trello_api_key'
p246
S'9999'
p247
sS'Auth'
p248
S"<class 'gluon.tools.Auth'>"
p249
sS'current'
p250
S'<thread._local object>'
p251
sS'IS_EQUAL_TO'
p252
S"<class 'gluon.validators.IS_EQUAL_TO'>"
p253
sS'dal_represent_number'
p254
S'<function dal_represent_number>'
p255
sS'HTML'
p256
S"<class 'gluon.html.HTML'>"
p257
sS'SQLFORM'
p258
S"<class 'gluon.sqlhtml.SQLFORM'>"
p259
sS'dal_regex_ssn'
p260
S"r'^\\d{3}-\\d{2}-\\d{4}$'"
p261
sS'EM'
p262
S"<class 'gluon.html.EM'>"
p263
sS'redirect'
p264
S'<function redirect>'
p265
sS'widget'
p266
S'<function widget>'
p267
sS'FIELDSET'
p268
S"<class 'gluon.html.FIELDSET'>"
p269
sS'dal_represent_percent'
p270
S'<function dal_represent_percent>'
p271
sS'Titleize'
p272
S"<class '__restricted__.Titleize'>"
p273
sS'embed64'
p274
S'<function embed64>'
p275
sS'list_groups'
p276
S'[1, 2]'
p277
sS'IS_LIST_OF'
p278
S"<class 'gluon.validators.IS_LIST_OF'>"
p279
sS'user_visibility'
p280
S'<function user_visibility>'
p281
sS'DEBUG'
p282
g207
sS'__name__'
p283
S"'__restricted__'"
p284
sS'EMBED'
p285
S"<class 'gluon.html.EMBED'>"
p286
sS'FORM'
p287
S"<class 'gluon.html.FORM'>"
p288
sS'myconf'
p289
S"{'admin_user': {'username': 'admin', 'first_name...999.mailgun.org>', 'server': 'smtp.mailgun.org'}}"
p290
sS'H2'
p291
S"<class 'gluon.html.H2'>"
p292
sS'H3'
p293
S"<class 'gluon.html.H3'>"
p294
sS'AppConfig'
p295
S'<function AppConfig>'
p296
sS'H1'
p297
S"<class 'gluon.html.H1'>"
p298
sS'H6'
p299
S"<class 'gluon.html.H6'>"
p300
sS'H4'
p301
S"<class 'gluon.html.H4'>"
p302
sS'H5'
p303
S"<class 'gluon.html.H5'>"
p304
sS'UL'
p305
S"<class 'gluon.html.UL'>"
p306
sS'IS_UPPER'
p307
S"<class 'gluon.validators.IS_UPPER'>"
p308
sS'xmlescape'
p309
S'<function xmlescape>'
p310
sS'IS_TIME'
p311
S"<class 'gluon.validators.IS_TIME'>"
p312
sS'OPTION'
p313
S"<class 'gluon.html.OPTION'>"
p314
sS'TITLE'
p315
S"<class 'gluon.html.TITLE'>"
p316
sS'CRYPT'
p317
S"<class 'gluon.validators.CRYPT'>"
p318
sS'IS_EMPTY_OR'
p319
S"<class 'gluon.validators.IS_EMPTY_OR'>"
p320
sS'MARKMIN'
p321
S"<class 'gluon.html.MARKMIN'>"
p322
sS'INPUT'
p323
S"<class 'gluon.html.INPUT'>"
p324
sS'STRONG'
p325
S"<class 'gluon.html.STRONG'>"
p326
sS'COL'
p327
S"<class 'gluon.html.COL'>"
p328
sS'service'
p329
S'<gluon.tools.Service object>'
p330
sS'SCRIPT'
p331
S"<class 'gluon.html.SCRIPT'>"
p332
sS'dal_list_states_br'
p333
S"[('GO', 'Goi\\xc3\\xa1s'), ('MT', 'Mato Grosso'), ('MS', 'Mato Grosso do Sul'), ('DF', 'Distrito Federal'), ('AM', 'Amazonas'), ('AC', 'Acre'), ('RO', 'Rond\\xc3\\xb4nia'), ('RR', 'Roraima'), ('AP', 'Amap\\xc3\\xa1'), ('TO', 'Tocantins'), ('PA', 'Para'), ('MA', 'Maranh\\xc3\\xa3o'), ('PI', 'Piaui'), ('CE', 'Ceara'), ('RN', 'Rio Grande do Norte'), ('PB', 'Paraiba'), ('PE', 'Pernambuco'), ('SE', 'Sergipe'), ('AL', 'Alagoas'), ('BA', 'Bahia'), ...]"
p334
sS'mcg_date_widget'
p335
S'<function mcg_date_widget>'
p336
sS'master'
p337
S'<Rows (1)>'
p338
sS'TABLE'
p339
S"<class 'gluon.html.TABLE'>"
p340
sS'THEAD'
p341
S"<class 'gluon.html.THEAD'>"
p342
sS'IS_IPV4'
p343
S"<class 'gluon.validators.IS_IPV4'>"
p344
sS'IS_LENGTH'
p345
S"<class 'gluon.validators.IS_LENGTH'>"
p346
sS'IS_IPV6'
p347
S"<class 'gluon.validators.IS_IPV6'>"
p348
sS'XML'
p349
S"<class 'gluon.html.XML'>"
p350
sS'B'
S"<class 'gluon.html.B'>"
p351
sS'IMG'
p352
S"<class 'gluon.html.IMG'>"
p353
sS'SQLTABLE'
p354
S"<class 'gluon.sqlhtml.SQLTABLE'>"
p355
sS'IS_MATCH'
p356
S"<class 'gluon.validators.IS_MATCH'>"
p357
sS'IS_ALPHANUMERIC'
p358
S"<class 'gluon.validators.IS_ALPHANUMERIC'>"
p359
sS'SPAN'
p360
S"<class 'gluon.html.SPAN'>"
p361
sS'IS_JSON'
p362
S"<class 'gluon.validators.IS_JSON'>"
p363
sS'IS_IPADDRESS'
p364
S"<class 'gluon.validators.IS_IPADDRESS'>"
p365
sS'IS_SLUG'
p366
S"<class 'gluon.validators.IS_SLUG'>"
p367
sS'BEAUTIFY'
p368
S"<class 'gluon.html.BEAUTIFY'>"
p369
sS'META'
p370
S"<class 'gluon.html.META'>"
p371
sS'BUTTON'
p372
S"<class 'gluon.html.BUTTON'>"
p373
sS'IS_DATE'
p374
S"<class 'gluon.validators.IS_DATE'>"
p375
sS'IS_EMAIL'
p376
S"<class 'gluon.validators.IS_EMAIL'>"
p377
sS'IS_NOT_EMPTY'
p378
S"<class 'gluon.validators.IS_NOT_EMPTY'>"
p379
sg56
S"<Storage {'_vars': None, 'function': 'manage', '...\\\\Python\\\\web2py\\\\applications\\\\wpstarter_gh\\\\'}>"
p380
sS'TBODY'
p381
S"<class 'gluon.html.TBODY'>"
p382
sS'myconf_env'
p383
S"'dev_'"
p384
sS'CAT'
p385
S"<class 'gluon.html.CAT'>"
p386
sS'Field'
p387
S"<class 'pydal.objects.Field'>"
p388
sS'IS_LIST_OF_EMAILS'
p389
S"<class 'gluon.validators.IS_LIST_OF_EMAILS'>"
p390
sS'DIV'
p391
S"<class 'gluon.html.DIV'>"
p392
sS'LEGEND'
p393
S"<class 'gluon.html.LEGEND'>"
p394
sS'COLGROUP'
p395
S"<class 'gluon.html.COLGROUP'>"
p396
sS'DAL'
p397
S"<class 'pydal.base.DAL'>"
p398
sS'ASSIGNJS'
p399
S'<function ASSIGNJS>'
p400
sS'TR'
p401
S"<class 'gluon.html.TR'>"
p402
sS'__package__'
p403
S'None'
p404
sS'IFRAME'
p405
S"<class 'gluon.html.IFRAME'>"
p406
sS'dal_regex_phone_num'
p407
S"r'^\\s*(?:\\+?(\\d{1,3}))?[-. (]*(\\d{3})[-. )]*(\\d{3})[-. ]*(\\d{4})(?: *x(\\d+))?\\s*$'"
p408
sS'TD'
p409
S"<class 'gluon.html.TD'>"
p410
sS'PluginManager'
p411
S"<class 'gluon.tools.PluginManager'>"
p412
sS'IS_URL'
p413
S"<class 'gluon.validators.IS_URL'>"
p414
sS'A'
S"<class 'gluon.html.A'>"
p415
sS'STYLE'
p416
S"<class 'gluon.html.STYLE'>"
p417
sS'IS_DATETIME_IN_RANGE'
p418
S"<class 'gluon.validators.IS_DATETIME_IN_RANGE'>"
p419
sS'IS_IMAGE'
p420
S"<class 'gluon.validators.IS_IMAGE'>"
p421
sS'I'
S"<class 'gluon.html.I'>"
p422
sS'__builtins__'
p423
S"{'ArithmeticError': <type 'exceptions.ArithmeticError'>, 'AssertionError': <type 'exceptions.AssertionError'>, 'AttributeError': <type 'exceptions.AttributeError'>, 'BaseException': <type 'exceptions.BaseException'>, 'BufferError': <type 'exceptions.BufferError'>, 'BytesWarning': <type 'exceptions.BytesWarning'>, 'DeprecationWarning': <type 'exceptions.DeprecationWarning'>, 'EOFError': <type 'exceptions.EOFError'>, 'Ellipsis': Ellipsis, 'EnvironmentError': <type 'exceptions.EnvironmentError'>, ...}"
p424
sS'IS_NOT_IN_DB'
p425
S"<class 'gluon.validators.IS_NOT_IN_DB'>"
p426
sS'FormWidget'
p427
S"<class 'gluon.sqlhtml.FormWidget'>"
p428
sg136
S"<Storage {'body': <cStringIO.StringO object at 0...0000000A398358>, 'view': 'appadmin/manage.html'}>"
p429
sS'STATUSES'
p430
S"[['1', 'Happy'], ['2', 'Sad']]"
p431
sS'dal_regex_na_phone_num'
p432
S"r'^(?:(?:\\+?1\\s*(?:[.-]\\s*)?)?(?:\\(\\s*([2-9]1[02-9...]{4})(?:\\s*(?:#|x\\.?|ext\\.?|extension)\\s*(\\d+))?$'"
p433
sS'ANY_OF'
p434
S"<class 'gluon.validators.ANY_OF'>"
p435
sS'IS_NULL_OR'
p436
S"<class 'gluon.validators.IS_EMPTY_OR'>"
p437
sS'IS_FLOAT_IN_RANGE'
p438
S"<class 'gluon.validators.IS_FLOAT_IN_RANGE'>"
p439
sS'IS_EXPR'
p440
S"<class 'gluon.validators.IS_EXPR'>"
p441
sS'IS_IN_SET'
p442
S"<class 'gluon.validators.IS_IN_SET'>"
p443
sS'sidebar_menu_item'
p444
S'<function sidebar_menu_item>'
p445
sS'IS_UPLOAD_FILENAME'
p446
S"<class 'gluon.validators.IS_UPLOAD_FILENAME'>"
p447
sS'IS_DECIMAL_IN_RANGE'
p448
S"<class 'gluon.validators.IS_DECIMAL_IN_RANGE'>"
p449
sS'TT'
p450
S"<class 'gluon.html.TT'>"
p451
sS'T'
S'<gluon.languages.translator object>'
p452
sssS'traceback'
p453
S'Traceback (most recent call last):\n  File "C:\\Python\\web2py\\gluon\\restricted.py", line 227, in restricted\n    exec ccode in environment\n  File "C:\\Python\\web2py\\applications\\wpstarter_gh\\models\\menu.py", line 54, in <module>\n    menu_detalhe = db(db.t_menu_group.f_grupo.belongs(list_groups)).select(db.t_menu.f_menu_master,\nAttributeError: \'Table\' object has no attribute \'f_grupo\'\n'
p454
s.