(dp1
S'output'
p2
S"<type 'exceptions.KeyError'> 1L"
p3
sS'layer'
p4
S'C:\\Python\\web2py\\applications\\web2py_starter\\models\\menu.py'
p5
sS'code'
p6
S'# -*- coding: utf-8 -*-\n\n#########################################################################\n# Customize your APP title, subtitle and menus here\n#########################################################################\n\nresponse.logo_mini = IMG(_src=URL(\'static\', \'images/favicon.png\'), _alt=myconf.get(\'app.company\'), _width="30px")\n\n# response.logo = IMG(_src=URL(\'static\', \'images/favicon.png\'), _alt=myconf.get(\'app.company\'), _width="180px")\n# response.logo = SPAN(\'web\', B(2), \'py\', XML(\'&trade;&nbsp;\'))\nresponse.logo = myconf.get(\'app.abbreviation\')\n\n# default page title that appears in browser tabs and bookmarks\nresponse.title = \'%s: %s %s\' % (\n    myconf.get(\'app.abbreviation\'),\n    request.controller.replace(\'_\', \' \').title(),\n    request.function.replace(\'_\', \' \').title()\n)\n\nresponse.subtitle = \'\'\n\n# default view title that appears at top of default layout content section\nresponse.view_title = \'%s %s\' % (\n    request.controller.replace(\'_\', \' \').title(),\n    request.function.replace(\'_\', \' \').title()\n)\n\n# read more at http://dev.w3.org/html5/markup/meta.name.html\nresponse.meta.author = myconf.get(\'app.author\')\nresponse.meta.description = myconf.get(\'app.description\')\nresponse.meta.keywords = myconf.get(\'app.keywords\')\nresponse.meta.generator = myconf.get(\'app.generator\')\n\nresponse.company = myconf.get(\'app.company\')\nresponse.version = myconf.get(\'app.version\')\n\n# your http://google.com/analytics id\nresponse.google_analytics_id = None\n\n#====================================================================\n#novo menu - 26/12/2013\n\n\nfrom collections import defaultdict\n#carrega grupos pertencentes a esse user - funcao lista_grupos() em 0.py\nlist_groups = list_groups()\n#response.flash = lista_grupos\n#carrega o menu master numa vari[avel, pra nao precisar ficar acessando o BD toda hora\nmaster = db().select(db.t_menu_master.ALL,orderby=db.t_menu_master.f_order_master)\n#carrega to tabea do menu mua vari\xc3\xa1vel, contendo todos os dados para montagem do menu\ndetalhes = db().select(db.t_menu.ALL)\n#flitra os itens de menu fazendo join com a tabela t_menu_grupo - e flitrando com as que pertencem aos\n#gurpos do usu\xc3\xa1rio logado = lista_grupos\nmenu_detalhe = db(db.t_menu_group.f_group.belongs(list_groups)).select(db.t_menu.f_menu_master,\n   db.t_menu.id,\n        join=db.t_menu_group.on(db.t_menu_group.f_menu==db.t_menu.id),\n        groupby=db.t_menu.id,\n        orderby=db.t_menu.f_menu_order\n\n                                                                       )\n#atribui a vari\xc3\xa1vel Menu \xc3\xa0 um defaultlist - que \xc3\xa9 um dict que possuiu listas increment\xc3\xa1veis -\n#formando o Menu Master e Details\nmenu = defaultdict(list)\nmenu_new = dict()\n\n#itera sobre os tens de menu flitrados j\xc3\xa1 pelos grupos do usu\xc3\xa1rio detro da vari\xc3\xa1vel Menu\nfor row in menu_detalhe:\n    if int(row.id) not in menu[row.f_menu_master]:\n        menu[row.f_menu_master].append(int(row.id))\n        \nfor row in menu_detalhe:\n    if not menu_new[row.f_menu_master]:\n        menu_new[row.f_menu_master] = [row.id]\n    else:\n        menu[row.f_menu_master].append(int(row.id))\n        \nprint \'menu_new =>\', menu_new, \'\\n\'\n        \n        \nfor row in menu_detalhe:\n    if int(row.id) not in menu[row.f_menu_master]:\n        menu[row.f_menu_master].append(int(row.id))\n        \nresponse.menu=menu\n#response.flash = menu\n\n#monta o menu propriamente dito em ciam da variavel que j\xc3\xa1 possui a estrutura do master detail\n#onde o m \xc3\xa9 o Id do Master e l a lista dos detalhes\n\n\'\'\'\nfor m, l in menu.iteritems():\n    master = db.t_menu_master[m]\n    item_master = [master[\'f_menu_master\'], master[\'f_menu_master_icon\']]\n    internal_list=[]\n    for x in l:\n        menu_det = db.t_menu[x]\n        item = (menu_det[\'f_menu_detail\'],False,URL(db.t_menu[x][\'f_menu_controller\'],db.t_menu[x][\'f_menu_function\'],user_signature=db.t_menu[x][\'f_need_sign\']),db.t_menu[x][\'f_menu_detail_icon\'],[])\n        internal_list.append(item)\n    response.menu+= [(item_master[0], item_master[1] , False,\'\',internal_list)]\n\'\'\'    \n    \n#print  XML(BEAUTIFY(response.menu))\n#print  response.menu\n#print \'\\n\'\nprint  menu\n\n'
p7
sS'snapshot'
p8
(dp9
S'exception'
p10
(dp11
S'__hash__'
p12
S"<method-wrapper '__hash__' of exceptions.KeyError object>"
p13
sS'__setattr__'
p14
S"<method-wrapper '__setattr__' of exceptions.KeyError object>"
p15
sS'__reduce_ex__'
p16
S'<built-in method __reduce_ex__ of exceptions.KeyError object>'
p17
sS'__getslice__'
p18
S"<method-wrapper '__getslice__' of exceptions.KeyError object>"
p19
sS'__getitem__'
p20
S"<method-wrapper '__getitem__' of exceptions.KeyError object>"
p21
sS'__setstate__'
p22
S'<built-in method __setstate__ of exceptions.KeyError object>'
p23
sS'__reduce__'
p24
S'<built-in method __reduce__ of exceptions.KeyError object>'
p25
sS'__str__'
p26
S"<method-wrapper '__str__' of exceptions.KeyError object>"
p27
sS'__format__'
p28
S'<built-in method __format__ of exceptions.KeyError object>'
p29
sS'__getattribute__'
p30
S"<method-wrapper '__getattribute__' of exceptions.KeyError object>"
p31
sS'__class__'
p32
S"<type 'exceptions.KeyError'>"
p33
sS'__unicode__'
p34
S'<built-in method __unicode__ of exceptions.KeyError object>'
p35
sS'__delattr__'
p36
S"<method-wrapper '__delattr__' of exceptions.KeyError object>"
p37
sS'__subclasshook__'
p38
S'<built-in method __subclasshook__ of type object>'
p39
sS'__repr__'
p40
S"<method-wrapper '__repr__' of exceptions.KeyError object>"
p41
sS'__dict__'
p42
S'{}'
p43
sS'args'
p44
S'(1L,)'
p45
sS'__sizeof__'
p46
S'<built-in method __sizeof__ of exceptions.KeyError object>'
p47
sS'__doc__'
p48
S"'Mapping key not found.'"
p49
sS'__init__'
p50
S"<method-wrapper '__init__' of exceptions.KeyError object>"
p51
sS'__new__'
p52
S'<built-in method __new__ of type object>'
p53
ssS'evalue'
p54
S'1L'
p55
sS'request'
p56
cgluon.html
XML_unpickle
p57
(S'sws\x00\x00<div><table><tr><td style="font-weight:bold;vertical-align:top;">ajax</td><td style="vertical-align:top;">:</td><td><div>False</div></td></tr><tr><td style="font-weight:bold;vertical-align:top;">application</td><td style="vertical-align:top;">:</td><td><div>web2py_starter</div></td></tr><tr><td style="font-weight:bold;vertical-align:top;">args</td><td style="vertical-align:top;">:</td><td><div><table><tr><td><div>db</div></td></tr></table></div></td></tr><tr><td style="font-weight:bold;vertical-align:top;">cid</td><td style="vertical-align:top;">:</td><td><div>None</div></td></tr><tr><td style="font-weight:bold;vertical-align:top;">client</td><td style="vertical-align:top;">:</td><td><div>10.0.0.232</div></td></tr><tr><td style="font-weight:bold;vertical-align:top;">controller</td><td style="vertical-align:top;">:</td><td><div>appadmin</div></td></tr><tr><td style="font-weight:bold;vertical-align:top;">cookies</td><td style="vertical-align:top;">:</td><td><div><table><tr><td style="font-weight:bold;vertical-align:top;">session_id_admin</td><td style="vertical-align:top;">:</td><td><div>10.0.0.232-d68523ab-f99f-4aa6-8ab7-cf2a61fbd78a<table><tr><td style="font-weight:bold;vertical-align:top;">comment</td><td style="vertical-align:top;">:</td><td><div></div></td></tr><tr><td style="font-weight:bold;vertical-align:top;">domain</td><td style="vertical-align:top;">:</td><td><div></div></td></tr><tr><td style="font-weight:bold;vertical-align:top;">expires</td><td style="vertical-align:top;">:</td><td><div></div></td></tr><tr><td style="font-weight:bold;vertical-align:top;">httponly</td><td style="vertical-align:top;">:</td><td><div></div></td></tr><tr><td style="font-weight:bold;vertical-align:top;">max-age</td><td style="vertical-align:top;">:</td><td><div></div></td></tr><tr><td style="font-weight:bold;vertical-align:top;">path</td><td style="vertical-align:top;">:</td><td><div></div></td></tr><tr><td style="font-weight:bold;vertical-align:top;">secure</td><td style="vertical-align:top;">:</td><td><div></div></td></tr><tr><td style="font-weight:bold;vertical-align:top;">version</td><td style="vertical-align:top;">:</td><td><div></div></td></tr></table></div></td></tr><tr><td style="font-weight:bold;vertical-align:top;">session_id_conect_mssql</td><td style="vertical-align:top;">:</td><td><div>10.0.0.232-09d6aad6-785e-4a5e-b732-f202a76d7c83<table><tr><td style="font-weight:bold;vertical-align:top;">comment</td><td style="vertical-align:top;">:</td><td><div></div></td></tr><tr><td style="font-weight:bold;vertical-align:top;">domain</td><td style="vertical-align:top;">:</td><td><div></div></td></tr><tr><td style="font-weight:bold;vertical-align:top;">expires</td><td style="vertical-align:top;">:</td><td><div></div></td></tr><tr><td style="font-weight:bold;vertical-align:top;">httponly</td><td style="vertical-align:top;">:</td><td><div></div></td></tr><tr><td style="font-weight:bold;vertical-align:top;">max-age</td><td style="vertical-align:top;">:</td><td><div></div></td></tr><tr><td style="font-weight:bold;vertical-align:top;">path</td><td style="vertical-align:top;">:</td><td><div></div></td></tr><tr><td style="font-weight:bold;vertical-align:top;">secure</td><td style="vertical-align:top;">:</td><td><div></div></td></tr><tr><td style="font-weight:bold;vertical-align:top;">version</td><td style="vertical-align:top;">:</td><td><div></div></td></tr></table></div></td></tr><tr><td style="font-weight:bold;vertical-align:top;">session_id_malharia</td><td style="vertical-align:top;">:</td><td><div>10.0.0.232-b57213dc-3df0-47ee-8088-237f7699c3f3<table><tr><td style="font-weight:bold;vertical-align:top;">comment</td><td style="vertical-align:top;">:</td><td><div></div></td></tr><tr><td style="font-weight:bold;vertical-align:top;">domain</td><td style="vertical-align:top;">:</td><td><div></div></td></tr><tr><td style="font-weight:bold;vertical-align:top;">expires</td><td style="vertical-align:top;">:</td><td><div></div></td></tr><tr><td style="font-weight:bold;vertical-align:top;">httponly</td><td style="vertical-align:top;">:</td><td><div></div></td></tr><tr><td style="font-weight:bold;vertical-align:top;">max-age</td><td style="vertical-align:top;">:</td><td><div></div></td></tr><tr><td style="font-weight:bold;vertical-align:top;">path</td><td style="vertical-align:top;">:</td><td><div></div></td></tr><tr><td style="font-weight:bold;vertical-align:top;">secure</td><td style="vertical-align:top;">:</td><td><div></div></td></tr><tr><td style="font-weight:bold;vertical-align:top;">version</td><td style="vertical-align:top;">:</td><td><div></div></td></tr></table></div></td></tr><tr><td style="font-weight:bold;vertical-align:top;">session_id_medicstar</td><td style="vertical-align:top;">:</td><td><div>10.0.0.232-7d3769a9-42fd-4713-8018-6bc1e9f4c16b<table><tr><td style="font-weight:bold;vertical-align:top;">comment</td><td style="vertical-align:top;">:</td><td><div></div></td></tr><tr><td style="font-weight:bold;vertical-align:top;">domain</td><td style="vertical-align:top;">:</td><td><div></div></td></tr><tr><td style="font-weight:bold;vertical-align:top;">expires</td><td style="vertical-align:top;">:</td><td><div></div></td></tr><tr><td style="font-weight:bold;vertical-align:top;">httponly</td><td style="vertical-align:top;">:</td><td><div></div></td></tr><tr><td style="font-weight:bold;vertical-align:top;">max-age</td><td style="vertical-align:top;">:</td><td><div></div></td></tr><tr><td style="font-weight:bold;vertical-align:top;">path</td><td style="vertical-align:top;">:</td><td><div></div></td></tr><tr><td style="font-weight:bold;vertical-align:top;">secure</td><td style="vertical-align:top;">:</td><td><div></div></td></tr><tr><td style="font-weight:bold;vertical-align:top;">version</td><td style="vertical-align:top;">:</td><td><div></div></td></tr></table></div></td></tr><tr><td style="font-weight:bold;vertical-align:top;">session_id_orders</td><td style="vertical-align:top;">:</td><td><div>927:2e16e692-31f0-4b88-9ba5-326cf099efc9<table><tr><td style="font-weight:bold;vertical-align:top;">comment</td><td style="vertical-align:top;">:</td><td><div></div></td></tr><tr><td style="font-weight:bold;vertical-align:top;">domain</td><td style="vertical-align:top;">:</td><td><div></div></td></tr><tr><td style="font-weight:bold;vertical-align:top;">expires</td><td style="vertical-align:top;">:</td><td><div></div></td></tr><tr><td style="font-weight:bold;vertical-align:top;">httponly</td><td style="vertical-align:top;">:</td><td><div></div></td></tr><tr><td style="font-weight:bold;vertical-align:top;">max-age</td><td style="vertical-align:top;">:</td><td><div></div></td></tr><tr><td style="font-weight:bold;vertical-align:top;">path</td><td style="vertical-align:top;">:</td><td><div></div></td></tr><tr><td style="font-weight:bold;vertical-align:top;">secure</td><td style="vertical-align:top;">:</td><td><div></div></td></tr><tr><td style="font-weight:bold;vertical-align:top;">version</td><td style="vertical-align:top;">:</td><td><div></div></td></tr></table></div></td></tr><tr><td style="font-weight:bold;vertical-align:top;">session_id_web2py_starter</td><td style="vertical-align:top;">:</td><td><div>10.0.0.232-f9cb2954-bb5e-48af-9fe2-0a0c544a791a<table><tr><td style="font-weight:bold;vertical-align:top;">comment</td><td style="vertical-align:top;">:</td><td><div></div></td></tr><tr><td style="font-weight:bold;vertical-align:top;">domain</td><td style="vertical-align:top;">:</td><td><div></div></td></tr><tr><td style="font-weight:bold;vertical-align:top;">expires</td><td style="vertical-align:top;">:</td><td><div></div></td></tr><tr><td style="font-weight:bold;vertical-align:top;">httponly</td><td style="vertical-align:top;">:</td><td><div></div></td></tr><tr><td style="font-weight:bold;vertical-align:top;">max-age</td><td style="vertical-align:top;">:</td><td><div></div></td></tr><tr><td style="font-weight:bold;vertical-align:top;">path</td><td style="vertical-align:top;">:</td><td><div></div></td></tr><tr><td style="font-weight:bold;vertical-align:top;">secure</td><td style="vertical-align:top;">:</td><td><div></div></td></tr><tr><td style="font-weight:bold;vertical-align:top;">version</td><td style="vertical-align:top;">:</td><td><div></div></td></tr></table></div></td></tr><tr><td style="font-weight:bold;vertical-align:top;">session_id_welcome</td><td style="vertical-align:top;">:</td><td><div>10.0.0.232-596f9019-258c-4f8f-a50e-805b51ae0c73<table><tr><td style="font-weight:bold;vertical-align:top;">comment</td><td style="vertical-align:top;">:</td><td><div></div></td></tr><tr><td style="font-weight:bold;vertical-align:top;">domain</td><td style="vertical-align:top;">:</td><td><div></div></td></tr><tr><td style="font-weight:bold;vertical-align:top;">expires</td><td style="vertical-align:top;">:</td><td><div></div></td></tr><tr><td style="font-weight:bold;vertical-align:top;">httponly</td><td style="vertical-align:top;">:</td><td><div></div></td></tr><tr><td style="font-weight:bold;vertical-align:top;">max-age</td><td style="vertical-align:top;">:</td><td><div></div></td></tr><tr><td style="font-weight:bold;vertical-align:top;">path</td><td style="vertical-align:top;">:</td><td><div></div></td></tr><tr><td style="font-weight:bold;vertical-align:top;">secure</td><td style="vertical-align:top;">:</td><td><div></div></td></tr><tr><td style="font-weight:bold;vertical-align:top;">version</td><td style="vertical-align:top;">:</td><td><div></div></td></tr></table></div></td></tr></table></div></td></tr><tr><td style="font-weight:bold;vertical-align:top;">env</td><td style="vertical-align:top;">:</td><td><div><table><tr><td style="font-weight:bold;vertical-align:top;">HTTP_ACCEPT</td><td style="vertical-align:top;">:</td><td><div>text/html,application/xhtml+xml,application/xml;q=0.9,image/webp,*/*;q=0.8</div></td></tr><tr><td style="font-weight:bold;vertical-align:top;">HTTP_ACCEPT_ENCODING</td><td style="vertical-align:top;">:</td><td><div>gzip, deflate, sdch</div></td></tr><tr><td style="font-weight:bold;vertical-align:top;">HTTP_ACCEPT_LANGUAGE</td><td style="vertical-align:top;">:</td><td><div>pt-BR,pt;q=0.8,he;q=0.6,en-US;q=0.4,en;q=0.2</div></td></tr><tr><td style="font-weight:bold;vertical-align:top;">HTTP_CACHE_CONTROL</td><td style="vertical-align:top;">:</td><td><div>max-age=0</div></td></tr><tr><td style="font-weight:bold;vertical-align:top;">HTTP_CONNECTION</td><td style="vertical-align:top;">:</td><td><div>keep-alive</div></td></tr><tr><td style="font-weight:bold;vertical-align:top;">HTTP_COOKIE</td><td style="vertical-align:top;">:</td><td><div>session_id_welcome=10.0.0.232-596f9019-258c-4f8f-a50e-805b51ae0c73; session_id_medicstar=10.0.0.232-7d3769a9-42fd-4713-8018-6bc1e9f4c16b; session_id_conect_mssql=10.0.0.232-09d6aad6-785e-4a5e-b732-f202a76d7c83; session_id_malharia=10.0.0.232-b57213dc-3df0-47ee-8088-237f7699c3f3; session_id_orders=&quot;927:2e16e692-31f0-4b88-9ba5-326cf099efc9&quot;; session_id_admin=10.0.0.232-d68523ab-f99f-4aa6-8ab7-cf2a61fbd78a; session_id_web2py_starter=10.0.0.232-f9cb2954-bb5e-48af-9fe2-0a0c544a791a</div></td></tr><tr><td style="font-weight:bold;vertical-align:top;">HTTP_HOST</td><td style="vertical-align:top;">:</td><td><div>10.0.0.232:8050</div></td></tr><tr><td style="font-weight:bold;vertical-align:top;">HTTP_REFERER</td><td style="vertical-align:top;">:</td><td><div>http://10.0.0.232:8050/web2py_starter/dog/list</div></td></tr><tr><td style="font-weight:bold;vertical-align:top;">HTTP_UPGRADE_INSECURE_REQUESTS</td><td style="vertical-align:top;">:</td><td><div>1</div></td></tr><tr><td style="font-weight:bold;vertical-align:top;">HTTP_USER_AGENT</td><td style="vertical-align:top;">:</td><td><div>Mozilla/5.0 (Windows NT 6.1; WOW64) AppleWebKit/537.36 (KHTML, like Gecko) Chrome/57.0.2987.133 Safari/537.36</div></td></tr><tr><td style="font-weight:bold;vertical-align:top;">PATH_INFO</td><td style="vertical-align:top;">:</td><td><div>/web2py_starter/appadmin/manage/db</div></td></tr><tr><td style="font-weight:bold;vertical-align:top;">QUERY_STRING</td><td style="vertical-align:top;">:</td><td><div></div></td></tr><tr><td style="font-weight:bold;vertical-align:top;">REMOTE_ADDR</td><td style="vertical-align:top;">:</td><td><div>10.0.0.232</div></td></tr><tr><td style="font-weight:bold;vertical-align:top;">REMOTE_PORT</td><td style="vertical-align:top;">:</td><td><div>57404</div></td></tr><tr><td style="font-weight:bold;vertical-align:top;">REQUEST_METHOD</td><td style="vertical-align:top;">:</td><td><div>GET</div></td></tr><tr><td style="font-weight:bold;vertical-align:top;">SCRIPT_NAME</td><td style="vertical-align:top;">:</td><td><div></div></td></tr><tr><td style="font-weight:bold;vertical-align:top;">SERVER_NAME</td><td style="vertical-align:top;">:</td><td><div>BRG129FBT4</div></td></tr><tr><td style="font-weight:bold;vertical-align:top;">SERVER_PORT</td><td style="vertical-align:top;">:</td><td><div>8050</div></td></tr><tr><td style="font-weight:bold;vertical-align:top;">SERVER_PROTOCOL</td><td style="vertical-align:top;">:</td><td><div>HTTP/1.1</div></td></tr><tr><td style="font-weight:bold;vertical-align:top;">SERVER_SOFTWARE</td><td style="vertical-align:top;">:</td><td><div>Rocket 1.2.6</div></td></tr><tr><td style="font-weight:bold;vertical-align:top;">app_folders</td><td style="vertical-align:top;">:</td><td><div>set([&#x27;C:\\\\Python\\\\web2py\\\\applications\\\\web2py_starter\\\\&#x27;])</div></td></tr><tr><td style="font-weight:bold;vertical-align:top;">applications_parent</td><td style="vertical-align:top;">:</td><td><div>C:\\Python\\web2py</div></td></tr><tr><td style="font-weight:bold;vertical-align:top;">cmd_args</td><td style="vertical-align:top;">:</td><td><div><table></table></div></td></tr><tr><td style="font-weight:bold;vertical-align:top;">cmd_options</td><td style="vertical-align:top;">:</td><td><div>&lt;Values at 0x3a86448: {&#x27;verbose&#x27;: False, &#x27;ip&#x27;: &#x27;10.0.0.232&#x27;, &#x27;debuglevel&#x27;: 30, &#x27;with_scheduler&#x27;: False, &#x27;shutdown_timeout&#x27;: 5, &#x27;taskbar&#x27;: False, &#x27;with_coverage&#x27;: False, &#x27;pid_filename&#x27;: &#x27;httpserver.pid&#x27;, &#x27;maxthreads&#x27;: None, &#x27;softcron&#x27;: False, &#x27;server_name&#x27;: &#x27;BRG129FBT4&#x27;, &#x27;bpython&#x27;: False, &#x27;nogui&#x27;: False, &#x27;port&#x27;: 8050, &#x27;print_errors&#x27;: False, &#x27;extcron&#x27;: False, &#x27;runcron&#x27;: False, &#x27;run_system_tests&#x27;: False, &#x27;test&#x27;: None, &#x27;folder&#x27;: &#x27;C:\\\\Python\\\\web2py&#x27;, &#x27;config&#x27;: &#x27;&#x27;, &#x27;minthreads&#x27;: None, &#x27;shell&#x27;: None, &#x27;run&#x27;: &#x27;&#x27;, &#x27;log_filename&#x27;: &#x27;httpserver.log&#x27;, &#x27;profiler_dir&#x27;: None, &#x27;args&#x27;: [&#x27;&#x27;], &#x27;socket_timeout&#x27;: 5, &#x27;ssl_ca_certificate&#x27;: None, &#x27;scheduler&#x27;: None, &#x27;interfaces&#x27;: None, &#x27;ssl_private_key&#x27;: &#x27;&#x27;, &#x27;gae&#x27;: None, &#x27;password&#x27;: &#x27;******&#x27;, &#x27;request_queue_size&#x27;: 5, &#x27;ssl_certificate&#x27;: &#x27;&#x27;, &#x27;cronjob&#x27;: False, &#x27;numthreads&#x27;: None, &#x27;quiet&#x27;: False, &#x27;import_models&#x27;: False, &#x27;timeout&#x27;: 10, &#x27;plain&#x27;: False, &#x27;nobanner&#x27;: False}&gt;</div></td></tr><tr><td style="font-weight:bold;vertical-align:top;">db_sessions</td><td style="vertical-align:top;">:</td><td><div>set([])</div></td></tr><tr><td style="font-weight:bold;vertical-align:top;">debugging</td><td style="vertical-align:top;">:</td><td><div>False</div></td></tr><tr><td style="font-weight:bold;vertical-align:top;">gluon_parent</td><td style="vertical-align:top;">:</td><td><div>C:\\Python\\web2py</div></td></tr><tr><td style="font-weight:bold;vertical-align:top;">http_accept</td><td style="vertical-align:top;">:</td><td><div>text/html,application/xhtml+xml,application/xml;q=0.9,image/webp,*/*;q=0.8</div></td></tr><tr><td style="font-weight:bold;vertical-align:top;">http_accept_encoding</td><td style="vertical-align:top;">:</td><td><div>gzip, deflate, sdch</div></td></tr><tr><td style="font-weight:bold;vertical-align:top;">http_accept_language</td><td style="vertical-align:top;">:</td><td><div>pt-BR,pt;q=0.8,he;q=0.6,en-US;q=0.4,en;q=0.2</div></td></tr><tr><td style="font-weight:bold;vertical-align:top;">http_cache_control</td><td style="vertical-align:top;">:</td><td><div>max-age=0</div></td></tr><tr><td style="font-weight:bold;vertical-align:top;">http_connection</td><td style="vertical-align:top;">:</td><td><div>keep-alive</div></td></tr><tr><td style="font-weight:bold;vertical-align:top;">http_cookie</td><td style="vertical-align:top;">:</td><td><div>session_id_welcome=10.0.0.232-596f9019-258c-4f8f-a50e-805b51ae0c73; session_id_medicstar=10.0.0.232-7d3769a9-42fd-4713-8018-6bc1e9f4c16b; session_id_conect_mssql=10.0.0.232-09d6aad6-785e-4a5e-b732-f202a76d7c83; session_id_malharia=10.0.0.232-b57213dc-3df0-47ee-8088-237f7699c3f3; session_id_orders=&quot;927:2e16e692-31f0-4b88-9ba5-326cf099efc9&quot;; session_id_admin=10.0.0.232-d68523ab-f99f-4aa6-8ab7-cf2a61fbd78a; session_id_web2py_starter=10.0.0.232-f9cb2954-bb5e-48af-9fe2-0a0c544a791a</div></td></tr><tr><td style="font-weight:bold;vertical-align:top;">http_host</td><td style="vertical-align:top;">:</td><td><div>10.0.0.232:8050</div></td></tr><tr><td style="font-weight:bold;vertical-align:top;">http_referer</td><td style="vertical-align:top;">:</td><td><div>http://10.0.0.232:8050/web2py_starter/dog/list</div></td></tr><tr><td style="font-weight:bold;vertical-align:top;">http_upgrade_insecure_requests</td><td style="vertical-align:top;">:</td><td><div>1</div></td></tr><tr><td style="font-weight:bold;vertical-align:top;">http_user_agent</td><td style="vertical-align:top;">:</td><td><div>Mozilla/5.0 (Windows NT 6.1; WOW64) AppleWebKit/537.36 (KHTML, like Gecko) Chrome/57.0.2987.133 Safari/537.36</div></td></tr><tr><td style="font-weight:bold;vertical-align:top;">is_jython</td><td style="vertical-align:top;">:</td><td><div>False</div></td></tr><tr><td style="font-weight:bold;vertical-align:top;">is_pypy</td><td style="vertical-align:top;">:</td><td><div>False</div></td></tr><tr><td style="font-weight:bold;vertical-align:top;">is_source</td><td style="vertical-align:top;">:</td><td><div>True</div></td></tr><tr><td style="font-weight:bold;vertical-align:top;">local_hosts</td><td style="vertical-align:top;">:</td><td><div><table><tr><td><div>192.168.100.1</div></td></tr><tr><td><div>BRG129FBT4.central.com.br</div></td></tr><tr><td><div>BRG129FBT4</div></td></tr><tr><td><div>::ffff:127.0.0.1</div></td></tr><tr><td><div>::1</div></td></tr><tr><td><div>192.168.99.1</div></td></tr><tr><td><div>fe80::7082:fc3e:4875:2892%19</div></td></tr><tr><td><div>fe80::f49f:5833:35f2:1e03%18</div></td></tr><tr><td><div>10.0.0.232</div></td></tr><tr><td><div>127.0.0.1</div></td></tr></table></div></td></tr><tr><td style="font-weight:bold;vertical-align:top;">path_info</td><td style="vertical-align:top;">:</td><td><div>/web2py_starter/appadmin/manage/db</div></td></tr><tr><td style="font-weight:bold;vertical-align:top;">query_string</td><td style="vertical-align:top;">:</td><td><div></div></td></tr><tr><td style="font-weight:bold;vertical-align:top;">remote_addr</td><td style="vertical-align:top;">:</td><td><div>10.0.0.232</div></td></tr><tr><td style="font-weight:bold;vertical-align:top;">remote_port</td><td style="vertical-align:top;">:</td><td><div>57404</div></td></tr><tr><td style="font-weight:bold;vertical-align:top;">request_method</td><td style="vertical-align:top;">:</td><td><div>GET</div></td></tr><tr><td style="font-weight:bold;vertical-align:top;">request_uri</td><td style="vertical-align:top;">:</td><td><div>/web2py_starter/appadmin/manage/db</div></td></tr><tr><td style="font-weight:bold;vertical-align:top;">script_name</td><td style="vertical-align:top;">:</td><td><div></div></td></tr><tr><td style="font-weight:bold;vertical-align:top;">server_name</td><td style="vertical-align:top;">:</td><td><div>BRG129FBT4</div></td></tr><tr><td style="font-weight:bold;vertical-align:top;">server_port</td><td style="vertical-align:top;">:</td><td><div>8050</div></td></tr><tr><td style="font-weight:bold;vertical-align:top;">server_protocol</td><td style="vertical-align:top;">:</td><td><div>HTTP/1.1</div></td></tr><tr><td style="font-weight:bold;vertical-align:top;">server_software</td><td style="vertical-align:top;">:</td><td><div>Rocket 1.2.6</div></td></tr><tr><td style="font-weight:bold;vertical-align:top;">web2py_path</td><td style="vertical-align:top;">:</td><td><div>C:\\Python\\web2py</div></td></tr><tr><td style="font-weight:bold;vertical-align:top;">web2py_version</td><td style="vertical-align:top;">:</td><td><div>2.14.6-stable+timestamp.2016.05.10.00.21.47</div></td></tr><tr><td style="font-weight:bold;vertical-align:top;">wsgi.errors</td><td style="vertical-align:top;">:</td><td><div>&lt;open file &#x27;&lt;stderr&gt;&#x27;, mode &#x27;w&#x27; at 0x0000000001D12150&gt;</div></td></tr><tr><td style="font-weight:bold;vertical-align:top;">wsgi.file_wrapper</td><td style="vertical-align:top;">:</td><td><div>&lt;class wsgiref.util.FileWrapper at 0x0000000003A10AC8&gt;</div></td></tr><tr><td style="font-weight:bold;vertical-align:top;">wsgi.input</td><td style="vertical-align:top;">:</td><td><div>&lt;socket._fileobject object at 0x0000000008CD32A0&gt;</div></td></tr><tr><td style="font-weight:bold;vertical-align:top;">wsgi.multiprocess</td><td style="vertical-align:top;">:</td><td><div>False</div></td></tr><tr><td style="font-weight:bold;vertical-align:top;">wsgi.multithread</td><td style="vertical-align:top;">:</td><td><div>True</div></td></tr><tr><td style="font-weight:bold;vertical-align:top;">wsgi.run_once</td><td style="vertical-align:top;">:</td><td><div>False</div></td></tr><tr><td style="font-weight:bold;vertical-align:top;">wsgi.url_scheme</td><td style="vertical-align:top;">:</td><td><div>http</div></td></tr><tr><td style="font-weight:bold;vertical-align:top;">wsgi.version</td><td style="vertical-align:top;">:</td><td><div><table><tr><td><div>1</div></td></tr><tr><td><div>0</div></td></tr></table></div></td></tr><tr><td style="font-weight:bold;vertical-align:top;">wsgi_errors</td><td style="vertical-align:top;">:</td><td><div>&lt;open file &#x27;&lt;stderr&gt;&#x27;, mode &#x27;w&#x27; at 0x0000000001D12150&gt;</div></td></tr><tr><td style="font-weight:bold;vertical-align:top;">wsgi_file_wrapper</td><td style="vertical-align:top;">:</td><td><div>&lt;class wsgiref.util.FileWrapper at 0x0000000003A10AC8&gt;</div></td></tr><tr><td style="font-weight:bold;vertical-align:top;">wsgi_input</td><td style="vertical-align:top;">:</td><td><div>&lt;socket._fileobject object at 0x0000000008CD32A0&gt;</div></td></tr><tr><td style="font-weight:bold;vertical-align:top;">wsgi_multiprocess</td><td style="vertical-align:top;">:</td><td><div>False</div></td></tr><tr><td style="font-weight:bold;vertical-align:top;">wsgi_multithread</td><td style="vertical-align:top;">:</td><td><div>True</div></td></tr><tr><td style="font-weight:bold;vertical-align:top;">wsgi_run_once</td><td style="vertical-align:top;">:</td><td><div>False</div></td></tr><tr><td style="font-weight:bold;vertical-align:top;">wsgi_url_scheme</td><td style="vertical-align:top;">:</td><td><div>http</div></td></tr><tr><td style="font-weight:bold;vertical-align:top;">wsgi_version</td><td style="vertical-align:top;">:</td><td><div><table><tr><td><div>1</div></td></tr><tr><td><div>0</div></td></tr></table></div></td></tr></table></div></td></tr><tr><td style="font-weight:bold;vertical-align:top;">extension</td><td style="vertical-align:top;">:</td><td><div>html</div></td></tr><tr><td style="font-weight:bold;vertical-align:top;">folder</td><td style="vertical-align:top;">:</td><td><div>C:\\Python\\web2py\\applications\\web2py_starter\\</div></td></tr><tr><td style="font-weight:bold;vertical-align:top;">function</td><td style="vertical-align:top;">:</td><td><div>manage</div></td></tr><tr><td style="font-weight:bold;vertical-align:top;">global_settings</td><td style="vertical-align:top;">:</td><td><div><table><tr><td style="font-weight:bold;vertical-align:top;">app_folders</td><td style="vertical-align:top;">:</td><td><div>set([&#x27;C:\\\\Python\\\\web2py\\\\applications\\\\web2py_starter\\\\&#x27;])</div></td></tr><tr><td style="font-weight:bold;vertical-align:top;">applications_parent</td><td style="vertical-align:top;">:</td><td><div>C:\\Python\\web2py</div></td></tr><tr><td style="font-weight:bold;vertical-align:top;">cmd_args</td><td style="vertical-align:top;">:</td><td><div><table></table></div></td></tr><tr><td style="font-weight:bold;vertical-align:top;">cmd_options</td><td style="vertical-align:top;">:</td><td><div>&lt;Values at 0x3a86448: {&#x27;verbose&#x27;: False, &#x27;ip&#x27;: &#x27;10.0.0.232&#x27;, &#x27;debuglevel&#x27;: 30, &#x27;with_scheduler&#x27;: False, &#x27;shutdown_timeout&#x27;: 5, &#x27;taskbar&#x27;: False, &#x27;with_coverage&#x27;: False, &#x27;pid_filename&#x27;: &#x27;httpserver.pid&#x27;, &#x27;maxthreads&#x27;: None, &#x27;softcron&#x27;: False, &#x27;server_name&#x27;: &#x27;BRG129FBT4&#x27;, &#x27;bpython&#x27;: False, &#x27;nogui&#x27;: False, &#x27;port&#x27;: 8050, &#x27;print_errors&#x27;: False, &#x27;extcron&#x27;: False, &#x27;runcron&#x27;: False, &#x27;run_system_tests&#x27;: False, &#x27;test&#x27;: None, &#x27;folder&#x27;: &#x27;C:\\\\Python\\\\web2py&#x27;, &#x27;config&#x27;: &#x27;&#x27;, &#x27;minthreads&#x27;: None, &#x27;shell&#x27;: None, &#x27;run&#x27;: &#x27;&#x27;, &#x27;log_filename&#x27;: &#x27;httpserver.log&#x27;, &#x27;profiler_dir&#x27;: None, &#x27;args&#x27;: [&#x27;&#x27;], &#x27;socket_timeout&#x27;: 5, &#x27;ssl_ca_certificate&#x27;: None, &#x27;scheduler&#x27;: None, &#x27;interfaces&#x27;: None, &#x27;ssl_private_key&#x27;: &#x27;&#x27;, &#x27;gae&#x27;: None, &#x27;password&#x27;: &#x27;******&#x27;, &#x27;request_queue_size&#x27;: 5, &#x27;ssl_certificate&#x27;: &#x27;&#x27;, &#x27;cronjob&#x27;: False, &#x27;numthreads&#x27;: None, &#x27;quiet&#x27;: False, &#x27;import_models&#x27;: False, &#x27;timeout&#x27;: 10, &#x27;plain&#x27;: False, &#x27;nobanner&#x27;: False}&gt;</div></td></tr><tr><td style="font-weight:bold;vertical-align:top;">db_sessions</td><td style="vertical-align:top;">:</td><td><div>set([])</div></td></tr><tr><td style="font-weight:bold;vertical-align:top;">debugging</td><td style="vertical-align:top;">:</td><td><div>False</div></td></tr><tr><td style="font-weight:bold;vertical-align:top;">gluon_parent</td><td style="vertical-align:top;">:</td><td><div>C:\\Python\\web2py</div></td></tr><tr><td style="font-weight:bold;vertical-align:top;">is_jython</td><td style="vertical-align:top;">:</td><td><div>False</div></td></tr><tr><td style="font-weight:bold;vertical-align:top;">is_pypy</td><td style="vertical-align:top;">:</td><td><div>False</div></td></tr><tr><td style="font-weight:bold;vertical-align:top;">is_source</td><td style="vertical-align:top;">:</td><td><div>True</div></td></tr><tr><td style="font-weight:bold;vertical-align:top;">local_hosts</td><td style="vertical-align:top;">:</td><td><div><table><tr><td><div>192.168.100.1</div></td></tr><tr><td><div>BRG129FBT4.central.com.br</div></td></tr><tr><td><div>BRG129FBT4</div></td></tr><tr><td><div>::ffff:127.0.0.1</div></td></tr><tr><td><div>::1</div></td></tr><tr><td><div>192.168.99.1</div></td></tr><tr><td><div>fe80::7082:fc3e:4875:2892%19</div></td></tr><tr><td><div>fe80::f49f:5833:35f2:1e03%18</div></td></tr><tr><td><div>10.0.0.232</div></td></tr><tr><td><div>127.0.0.1</div></td></tr></table></div></td></tr><tr><td style="font-weight:bold;vertical-align:top;">web2py_version</td><td style="vertical-align:top;">:</td><td><div>2.14.6-stable+timestamp.2016.05.10.00.21.47</div></td></tr></table></div></td></tr><tr><td style="font-weight:bold;vertical-align:top;">is_https</td><td style="vertical-align:top;">:</td><td><div>False</div></td></tr><tr><td style="font-weight:bold;vertical-align:top;">is_local</td><td style="vertical-align:top;">:</td><td><div>True</div></td></tr><tr><td style="font-weight:bold;vertical-align:top;">is_restful</td><td style="vertical-align:top;">:</td><td><div>False</div></td></tr><tr><td style="font-weight:bold;vertical-align:top;">is_scheduler</td><td style="vertical-align:top;">:</td><td><div>False</div></td></tr><tr><td style="font-weight:bold;vertical-align:top;">is_shell</td><td style="vertical-align:top;">:</td><td><div>False</div></td></tr><tr><td style="font-weight:bold;vertical-align:top;">now</td><td style="vertical-align:top;">:</td><td><div>datetime.datetime(2017, 5, 12, 17, 33, 54, 191000)</div></td></tr><tr><td style="font-weight:bold;vertical-align:top;">raw_args</td><td style="vertical-align:top;">:</td><td><div>db</div></td></tr><tr><td style="font-weight:bold;vertical-align:top;">raw_extension</td><td style="vertical-align:top;">:</td><td><div>None</div></td></tr><tr><td style="font-weight:bold;vertical-align:top;">url</td><td style="vertical-align:top;">:</td><td><div>/web2py_starter/appadmin/manage/db</div></td></tr><tr><td style="font-weight:bold;vertical-align:top;">utcnow</td><td style="vertical-align:top;">:</td><td><div>datetime.datetime(2017, 5, 12, 17, 33, 54, 191000)</div></td></tr><tr><td style="font-weight:bold;vertical-align:top;">wsgi</td><td style="vertical-align:top;">:</td><td><div>&lt;gluon.main.LazyWSGI object at 0x0000000008A90470&gt;</div></td></tr></table></div>'
tRp58
sS'frames'
p59
(lp60
(dp61
S'file'
p62
S'C:\\Python\\web2py\\gluon\\restricted.py'
p63
sS'dump'
p64
(dp65
S'environment'
p66
S"{'A': <class 'gluon.html.A'>, 'ANY_OF': <class 'gluon.validators.ANY_OF'>, 'ASSIGNJS': <function ASSIGNJS>, 'AppConfig': <function AppConfig>, 'Auth': <class 'gluon.tools.Auth'>, 'B': <class 'gluon.html.B'>, 'BEAUTIFY': <class 'gluon.html.BEAUTIFY'>, 'BODY': <class 'gluon.html.BODY'>, 'BR': <class 'gluon.html.BR'>, 'BUTTON': <class 'gluon.html.BUTTON'>, ...}"
p67
sS'ccode'
p68
S'<code object <module> at 0000000008A9B2B0, file ...lications\\web2py_starter\\models\\menu.py", line 7>'
p69
ssS'lnum'
p70
I227
sS'lines'
p71
(dp72
I224
S'            ccode = code'
p73
sI225
S'        else:'
p74
sI226
S'            ccode = compile2(code, layer)'
p75
sI227
S'        exec ccode in environment'
p76
sI228
S'    except HTTP:'
p77
sI229
S'        raise'
p78
sI230
S'    except RestrictedError:'
p79
sI231
S'        # do not encapsulate (obfuscate) the original RestrictedError'
p80
sI222
S'    try:'
p81
sI223
S'        if isinstance(code, types.CodeType):'
p82
ssS'call'
p83
S'(code="# -*- coding: utf-8 -*-\\n\\n#######################...)\\n#print  response.menu\\n#print \'\\\\n\'\\nprint  menu\\n\\n", environment={\'A\': <class \'gluon.html.A\'>, \'ANY_OF\': <class \'gluon.validators.ANY_OF\'>, \'ASSIGNJS\': <function ASSIGNJS>, \'AppConfig\': <function AppConfig>, \'Auth\': <class \'gluon.tools.Auth\'>, \'B\': <class \'gluon.html.B\'>, \'BEAUTIFY\': <class \'gluon.html.BEAUTIFY\'>, \'BODY\': <class \'gluon.html.BODY\'>, \'BR\': <class \'gluon.html.BR\'>, \'BUTTON\': <class \'gluon.html.BUTTON\'>, ...}, layer=r\'C:\\Python\\web2py\\applications\\web2py_starter\\models\\menu.py\')'
p84
sS'func'
p85
S'restricted'
p86
sa(dp87
g62
S'C:\\Python\\web2py\\applications\\web2py_starter\\models\\menu.py'
p88
sg64
(dp89
S'menu_new'
p90
g43
sS'row.f_menu_master'
p91
S'1L'
p92
sS'row'
p93
S"<Row {'t_menu_group': <Set (t_menu_group.f_menu = 1)>, 'f_menu_master': 1L, 'id': 1L}>"
p94
ssg70
I72
sg71
(dp95
I67
S'for row in menu_detalhe:'
p96
sI68
S'    if int(row.id) not in menu[row.f_menu_master]:'
p97
sI69
S'        menu[row.f_menu_master].append(int(row.id))'
p98
sI70
S''
sI71
S'for row in menu_detalhe:'
p99
sI72
S'    if not menu_new[row.f_menu_master]:'
p100
sI73
S'        menu_new[row.f_menu_master] = [row.id]'
p101
sI74
S'    else:'
p102
sI75
S'        menu[row.f_menu_master].append(int(row.id))'
p103
sI76
S''
ssg83
S'()'
p104
sg85
S'<module>'
p105
sasS'pyver'
p106
S'Python 2.7.12: C:\\Python27\\python.exe (prefix: C:\\Python27)'
p107
sS'session'
p108
g57
(S's\xe4\x12\x00\x00<div><table><tr><td style="font-weight:bold;vertical-align:top;">auth</td><td style="vertical-align:top;">:</td><td><div><table><tr><td style="font-weight:bold;vertical-align:top;">expiration</td><td style="vertical-align:top;">:</td><td><div>86400</div></td></tr><tr><td style="font-weight:bold;vertical-align:top;">hmac_key</td><td style="vertical-align:top;">:</td><td><div>6db350a8-3a37-4f0e-8888-724b98d91f55</div></td></tr><tr><td style="font-weight:bold;vertical-align:top;">last_visit</td><td style="vertical-align:top;">:</td><td><div>datetime.datetime(2017, 5, 12, 17, 20, 53, 937000)</div></td></tr><tr><td style="font-weight:bold;vertical-align:top;">remember_me</td><td style="vertical-align:top;">:</td><td><div>False</div></td></tr><tr><td style="font-weight:bold;vertical-align:top;">user</td><td style="vertical-align:top;">:</td><td><div><table><tr><td style="font-weight:bold;vertical-align:top;">bookmarks</td><td style="vertical-align:top;">:</td><td><div>{}</div></td></tr><tr><td style="font-weight:bold;vertical-align:top;">created_by</td><td style="vertical-align:top;">:</td><td><div>None</div></td></tr><tr><td style="font-weight:bold;vertical-align:top;">created_on</td><td style="vertical-align:top;">:</td><td><div>datetime.datetime(2017, 5, 12, 11, 40, 46)</div></td></tr><tr><td style="font-weight:bold;vertical-align:top;">email</td><td style="vertical-align:top;">:</td><td><div>admin@domain.com</div></td></tr><tr><td style="font-weight:bold;vertical-align:top;">first_name</td><td style="vertical-align:top;">:</td><td><div>Admin</div></td></tr><tr><td style="font-weight:bold;vertical-align:top;">id</td><td style="vertical-align:top;">:</td><td><div>1L</div></td></tr><tr><td style="font-weight:bold;vertical-align:top;">is_active</td><td style="vertical-align:top;">:</td><td><div>True</div></td></tr><tr><td style="font-weight:bold;vertical-align:top;">last_name</td><td style="vertical-align:top;">:</td><td><div>User</div></td></tr><tr><td style="font-weight:bold;vertical-align:top;">modified_by</td><td style="vertical-align:top;">:</td><td><div>1L</div></td></tr><tr><td style="font-weight:bold;vertical-align:top;">modified_on</td><td style="vertical-align:top;">:</td><td><div>datetime.datetime(2017, 5, 12, 11, 41, 42)</div></td></tr><tr><td style="font-weight:bold;vertical-align:top;">registration_id</td><td style="vertical-align:top;">:</td><td><div></div></td></tr><tr><td style="font-weight:bold;vertical-align:top;">registration_key</td><td style="vertical-align:top;">:</td><td><div></div></td></tr><tr><td style="font-weight:bold;vertical-align:top;">reset_password_key</td><td style="vertical-align:top;">:</td><td><div></div></td></tr><tr><td style="font-weight:bold;vertical-align:top;">username</td><td style="vertical-align:top;">:</td><td><div>admin</div></td></tr></table></div></td></tr><tr><td style="font-weight:bold;vertical-align:top;">user_groups</td><td style="vertical-align:top;">:</td><td><div><table><tr><td style="font-weight:bold;vertical-align:top;">2</td><td style="vertical-align:top;">:</td><td><div>Admin</div></td></tr></table></div></td></tr></table></div></td></tr><tr><td style="font-weight:bold;vertical-align:top;">breadcrumbs</td><td style="vertical-align:top;">:</td><td><div><table><tr><td><div><table><tr><td style="font-weight:bold;vertical-align:top;">icon</td><td style="vertical-align:top;">:</td><td><div>database</div></td></tr><tr><td style="font-weight:bold;vertical-align:top;">label</td><td style="vertical-align:top;">:</td><td><div>Manage Db</div></td></tr><tr><td style="font-weight:bold;vertical-align:top;">url</td><td style="vertical-align:top;">:</td><td><div>/web2py_starter/appadmin/manage/db</div></td></tr></table></div></td></tr><tr><td><div><table><tr><td style="font-weight:bold;vertical-align:top;">icon</td><td style="vertical-align:top;">:</td><td><div>list</div></td></tr><tr><td style="font-weight:bold;vertical-align:top;">label</td><td style="vertical-align:top;">:</td><td><div>List Dog</div></td></tr><tr><td style="font-weight:bold;vertical-align:top;">url</td><td style="vertical-align:top;">:</td><td><div>/web2py_starter/dog/list</div></td></tr></table></div></td></tr><tr><td><div><table><tr><td style="font-weight:bold;vertical-align:top;">icon</td><td style="vertical-align:top;">:</td><td><div>database</div></td></tr><tr><td style="font-weight:bold;vertical-align:top;">label</td><td style="vertical-align:top;">:</td><td><div>Manage Db</div></td></tr><tr><td style="font-weight:bold;vertical-align:top;">url</td><td style="vertical-align:top;">:</td><td><div>/web2py_starter/appadmin/manage/db</div></td></tr></table></div></td></tr></table></div></td></tr><tr><td style="font-weight:bold;vertical-align:top;">flash</td><td style="vertical-align:top;">:</td><td><div>None</div></td></tr></table></div>'
tRp109
sS'etype'
p110
S"<type 'exceptions.KeyError'>"
p111
sS'date'
p112
S'Fri May 12 14:33:54 2017'
p113
sS'response'
p114
g57
(S's\x01\x1f\x00\x00<div><table><tr><td style="font-weight:bold;vertical-align:top;">body</td><td style="vertical-align:top;">:</td><td><div>&lt;cStringIO.StringO object at 0x00000000086EE538&gt;</div></td></tr><tr><td style="font-weight:bold;vertical-align:top;">company</td><td style="vertical-align:top;">:</td><td><div>Company ABC</div></td></tr><tr><td style="font-weight:bold;vertical-align:top;">cookies</td><td style="vertical-align:top;">:</td><td><div><table><tr><td style="font-weight:bold;vertical-align:top;">session_id_web2py_starter</td><td style="vertical-align:top;">:</td><td><div>10.0.0.232-f9cb2954-bb5e-48af-9fe2-0a0c544a791a<table><tr><td style="font-weight:bold;vertical-align:top;">comment</td><td style="vertical-align:top;">:</td><td><div></div></td></tr><tr><td style="font-weight:bold;vertical-align:top;">domain</td><td style="vertical-align:top;">:</td><td><div></div></td></tr><tr><td style="font-weight:bold;vertical-align:top;">expires</td><td style="vertical-align:top;">:</td><td><div></div></td></tr><tr><td style="font-weight:bold;vertical-align:top;">httponly</td><td style="vertical-align:top;">:</td><td><div></div></td></tr><tr><td style="font-weight:bold;vertical-align:top;">max-age</td><td style="vertical-align:top;">:</td><td><div></div></td></tr><tr><td style="font-weight:bold;vertical-align:top;">path</td><td style="vertical-align:top;">:</td><td><div>/</div></td></tr><tr><td style="font-weight:bold;vertical-align:top;">secure</td><td style="vertical-align:top;">:</td><td><div></div></td></tr><tr><td style="font-weight:bold;vertical-align:top;">version</td><td style="vertical-align:top;">:</td><td><div></div></td></tr></table></div></td></tr></table></div></td></tr><tr><td style="font-weight:bold;vertical-align:top;">delimiters</td><td style="vertical-align:top;">:</td><td><div><table><tr><td><div>{{</div></td></tr><tr><td><div>}}</div></td></tr></table></div></td></tr><tr><td style="font-weight:bold;vertical-align:top;">files</td><td style="vertical-align:top;">:</td><td><div><table></table></div></td></tr><tr><td style="font-weight:bold;vertical-align:top;">flash</td><td style="vertical-align:top;">:</td><td><div></div></td></tr><tr><td style="font-weight:bold;vertical-align:top;">form_label_separator</td><td style="vertical-align:top;">:</td><td><div></div></td></tr><tr><td style="font-weight:bold;vertical-align:top;">formstyle</td><td style="vertical-align:top;">:</td><td><div>bootstrap3_inline</div></td></tr><tr><td style="font-weight:bold;vertical-align:top;">generic_patterns</td><td style="vertical-align:top;">:</td><td><div><table><tr><td><div>*</div></td></tr></table></div></td></tr><tr><td style="font-weight:bold;vertical-align:top;">google_analytics_id</td><td style="vertical-align:top;">:</td><td><div>None</div></td></tr><tr><td style="font-weight:bold;vertical-align:top;">headers</td><td style="vertical-align:top;">:</td><td><div><table><tr><td style="font-weight:bold;vertical-align:top;">X-Powered-By</td><td style="vertical-align:top;">:</td><td><div>web2py</div></td></tr></table></div></td></tr><tr><td style="font-weight:bold;vertical-align:top;">logo</td><td style="vertical-align:top;">:</td><td><div>w2p</div></td></tr><tr><td style="font-weight:bold;vertical-align:top;">logo_mini</td><td style="vertical-align:top;">:</td><td><div><img alt="Company ABC" src="/web2py_starter/static/images/favicon.png" width="30px" /></div></td></tr><tr><td style="font-weight:bold;vertical-align:top;">menu</td><td style="vertical-align:top;">:</td><td><div><table></table></div></td></tr><tr><td style="font-weight:bold;vertical-align:top;">meta</td><td style="vertical-align:top;">:</td><td><div><table><tr><td style="font-weight:bold;vertical-align:top;">author</td><td style="vertical-align:top;">:</td><td><div>Your Name &lt;you@example.com&gt;</div></td></tr><tr><td style="font-weight:bold;vertical-align:top;">description</td><td style="vertical-align:top;">:</td><td><div>a cool new app</div></td></tr><tr><td style="font-weight:bold;vertical-align:top;">generator</td><td style="vertical-align:top;">:</td><td><div>Web2py Web Framework</div></td></tr><tr><td style="font-weight:bold;vertical-align:top;">keywords</td><td style="vertical-align:top;">:</td><td><div><table><tr><td><div>web2py</div></td></tr><tr><td><div>python</div></td></tr><tr><td><div>framework</div></td></tr></table></div></td></tr></table></div></td></tr><tr><td style="font-weight:bold;vertical-align:top;">models_to_run</td><td style="vertical-align:top;">:</td><td><div><table><tr><td><div>^\\w+\\.py$</div></td></tr><tr><td><div>^appadmin/\\w+\\.py$</div></td></tr><tr><td><div>^appadmin/manage/\\w+\\.py$</div></td></tr></table></div></td></tr><tr><td style="font-weight:bold;vertical-align:top;">postprocessing</td><td style="vertical-align:top;">:</td><td><div><table></table></div></td></tr><tr><td style="font-weight:bold;vertical-align:top;">session_client</td><td style="vertical-align:top;">:</td><td><div>10.0.0.232</div></td></tr><tr><td style="font-weight:bold;vertical-align:top;">session_cookie_compression_level</td><td style="vertical-align:top;">:</td><td><div>None</div></td></tr><tr><td style="font-weight:bold;vertical-align:top;">session_cookie_expires</td><td style="vertical-align:top;">:</td><td><div>None</div></td></tr><tr><td style="font-weight:bold;vertical-align:top;">session_data_name</td><td style="vertical-align:top;">:</td><td><div>session_data_web2py_starter</div></td></tr><tr><td style="font-weight:bold;vertical-align:top;">session_file</td><td style="vertical-align:top;">:</td><td><div>&lt;open file &#x27;C:\\\\Python\\\\web2py\\\\applications\\\\web2py_starter\\\\sessions\\\\0db\\\\12c\\\\10.0.0.232-f9cb2954-bb5e-48af-9fe2-0a0c544a791a&#x27;, mode &#x27;rb+&#x27; at 0x000000000859C6F0&gt;</div></td></tr><tr><td style="font-weight:bold;vertical-align:top;">session_filename</td><td style="vertical-align:top;">:</td><td><div>C:\\Python\\web2py\\applications\\web2py_starter\\sessions\\10.0.0.232-f9cb2954-bb5e-48af-9fe2-0a0c544a791a</div></td></tr><tr><td style="font-weight:bold;vertical-align:top;">session_hash</td><td style="vertical-align:top;">:</td><td><div>ed630fae0b6bde25a81bf7a353f3f621</div></td></tr><tr><td style="font-weight:bold;vertical-align:top;">session_id</td><td style="vertical-align:top;">:</td><td><div>10.0.0.232-f9cb2954-bb5e-48af-9fe2-0a0c544a791a</div></td></tr><tr><td style="font-weight:bold;vertical-align:top;">session_id_name</td><td style="vertical-align:top;">:</td><td><div>session_id_web2py_starter</div></td></tr><tr><td style="font-weight:bold;vertical-align:top;">session_locked</td><td style="vertical-align:top;">:</td><td><div>True</div></td></tr><tr><td style="font-weight:bold;vertical-align:top;">session_masterapp</td><td style="vertical-align:top;">:</td><td><div>web2py_starter</div></td></tr><tr><td style="font-weight:bold;vertical-align:top;">session_new</td><td style="vertical-align:top;">:</td><td><div>False</div></td></tr><tr><td style="font-weight:bold;vertical-align:top;">session_storage_type</td><td style="vertical-align:top;">:</td><td><div>file</div></td></tr><tr><td style="font-weight:bold;vertical-align:top;">status</td><td style="vertical-align:top;">:</td><td><div>200</div></td></tr><tr><td style="font-weight:bold;vertical-align:top;">subtitle</td><td style="vertical-align:top;">:</td><td><div></div></td></tr><tr><td style="font-weight:bold;vertical-align:top;">title</td><td style="vertical-align:top;">:</td><td><div>w2p: Appadmin Manage</div></td></tr><tr><td style="font-weight:bold;vertical-align:top;">version</td><td style="vertical-align:top;">:</td><td><div>1.0</div></td></tr><tr><td style="font-weight:bold;vertical-align:top;">view</td><td style="vertical-align:top;">:</td><td><div>appadmin/manage.html</div></td></tr><tr><td style="font-weight:bold;vertical-align:top;">view_title</td><td style="vertical-align:top;">:</td><td><div>Appadmin Manage</div></td></tr></table></div>'
tRp115
sS'locals'
p116
(dp117
S'Service'
p118
S"<class 'gluon.tools.Service'>"
p119
sS'is_user_member'
p120
S'<function is_user_member>'
p121
sS'OBJECT'
p122
S"<class 'gluon.html.OBJECT'>"
p123
sS'LOAD'
p124
S'<function LOAD>'
p125
sS'track_changes'
p126
S'<function track_changes>'
p127
sS'SQLDB'
p128
S"<class 'pydal.base.DAL'>"
p129
sg108
S"<Storage {'_web2py_grid_referrer_FORNECEDORES_gr...ature=487609c18ebadd0a847e68c8d543e487b6c33f11'}>"
p130
sS'LINK'
p131
S"<class 'gluon.html.LINK'>"
p132
sS'BR'
p133
S"<class 'gluon.html.BR'>"
p134
sS'local_import'
p135
S'<function <lambda>>'
p136
sS'OPTGROUP'
p137
S"<class 'gluon.html.OPTGROUP'>"
p138
sS'LI'
p139
S"<class 'gluon.html.LI'>"
p140
sS'row'
p141
S"<Row {'t_menu_group': <Set (t_menu_group.f_menu = 1)>, 'f_menu_master': 1L, 'id': 1L}>"
p142
sS'PRE'
p143
S"<class 'gluon.html.PRE'>"
p144
sS'IS_INT_IN_RANGE'
p145
S"<class 'gluon.validators.IS_INT_IN_RANGE'>"
p146
sS'IS_LOWER'
p147
S"<class 'gluon.validators.IS_LOWER'>"
p148
sS'IS_STRONG'
p149
S"<class 'gluon.validators.IS_STRONG'>"
p150
sS'menu'
p151
S"defaultdict(<type 'list'>, {1L: [1]})"
p152
sS'cache'
p153
S'<gluon.cache.Cache object>'
p154
sS'IS_IN_DB'
p155
S"<class 'gluon.validators.IS_IN_DB'>"
p156
sS'TAG'
p157
S'<gluon.html.__TAG__ object>'
p158
sS'SQLField'
p159
S"<class 'pydal.objects.Field'>"
p160
sS'mail'
p161
S'<gluon.tools.Mail object>'
p162
sS'BODY'
p163
S"<class 'gluon.html.BODY'>"
p164
sS'IS_DATE_IN_RANGE'
p165
S"<class 'gluon.validators.IS_DATE_IN_RANGE'>"
p166
sS'detalhes'
p167
S'<Rows (1)>'
p168
sS'TH'
p169
S"<class 'gluon.html.TH'>"
p170
sS'URL'
p171
S'<function URL>'
p172
sS'__file__'
p173
S"r'C:\\Python\\web2py\\applications\\web2py_starter\\models\\menu.py'"
p174
sS'db'
p175
S'<DAL uri="sqlite://storage.sqlite">'
p176
sS'auth'
p177
S'<gluon.tools.Auth object>'
p178
sS'datepicker_widget'
p179
S'<function datepicker_widget>'
p180
sS'P'
S"<class 'gluon.html.P'>"
p181
sS'TFOOT'
p182
S"<class 'gluon.html.TFOOT'>"
p183
sS'XHTML'
p184
S"<class 'gluon.html.XHTML'>"
p185
sS'datetime'
p186
S"<module 'datetime' (built-in)>"
p187
sS'ON'
p188
S'True'
p189
sS'OL'
p190
S"<class 'gluon.html.OL'>"
p191
sS'TEXTAREA'
p192
S"<class 'gluon.html.TEXTAREA'>"
p193
sS'MENU'
p194
S"<class 'gluon.html.MENU'>"
p195
sS'dal_list_booleans'
p196
S"[('Y', 'Yes'), ('N', 'No')]"
p197
sS'dal_list_states'
p198
S"[('AL', 'Alabama, USA'), ('AK', 'Alaska, USA'), ('AB', 'Alberta, CAN'), ('AS', 'American Samoa, USA'), ('AZ', 'Arizona, USA'), ('AR', 'Arkansas, USA'), ('BC', 'British Columbia, CAN'), ('CA', 'California, USA'), ('CO', 'Colorado, USA'), ('CT', 'Connecticut, USA'), ('DE', 'Delaware, USA'), ('FL', 'Florida, USA'), ('GA', 'Georgia, USA'), ('GU', 'Guam, USA'), ('HI', 'Hawaii, USA'), ('ID', 'Idaho, USA'), ('IL', 'Illinois, USA'), ('IN', 'Indiana, USA'), ('IA', 'Iowa, USA'), ('KS', 'Kansas, USA'), ...]"
p199
sS'defaultdict'
p200
S"<type 'collections.defaultdict'>"
p201
sS'CODE'
p202
S"<class 'gluon.html.CODE'>"
p203
sS'HTTP'
p204
S"<class 'gluon.http.HTTP'>"
p205
sS'HR'
p206
S"<class 'gluon.html.HR'>"
p207
sS'IS_DATETIME'
p208
S"<class 'gluon.validators.IS_DATETIME'>"
p209
sS'HEAD'
p210
S"<class 'gluon.html.HEAD'>"
p211
sS'LABEL'
p212
S"<class 'gluon.html.LABEL'>"
p213
sS'CLEANUP'
p214
S"<class 'gluon.validators.CLEANUP'>"
p215
sS'CONTEXT'
p216
S"['Dog', 'Owner', 'Dog Lover']"
p217
sS'plugins'
p218
S'<gluon.tools.PluginManager object>'
p219
sS'SELECT'
p220
S"<class 'gluon.html.SELECT'>"
p221
sS'dal_list_genders'
p222
S"[('F', 'Female'), ('M', 'Male')]"
p223
sS'CENTER'
p224
S"<class 'gluon.html.CENTER'>"
p225
sS'prettydate'
p226
S'<function prettydate>'
p227
sS'trello_api_key'
p228
S'9999'
p229
sS'Auth'
p230
S"<class 'gluon.tools.Auth'>"
p231
sS'current'
p232
S'<thread._local object>'
p233
sS'IS_EQUAL_TO'
p234
S"<class 'gluon.validators.IS_EQUAL_TO'>"
p235
sS'dal_represent_number'
p236
S'<function dal_represent_number>'
p237
sS'HTML'
p238
S"<class 'gluon.html.HTML'>"
p239
sS'SQLFORM'
p240
S"<class 'gluon.sqlhtml.SQLFORM'>"
p241
sS'dal_regex_ssn'
p242
S"r'^\\d{3}-\\d{2}-\\d{4}$'"
p243
sS'EM'
p244
S"<class 'gluon.html.EM'>"
p245
sS'redirect'
p246
S'<function redirect>'
p247
sS'widget'
p248
S'<function widget>'
p249
sS'FIELDSET'
p250
S"<class 'gluon.html.FIELDSET'>"
p251
sS'dal_represent_percent'
p252
S'<function dal_represent_percent>'
p253
sS'Titleize'
p254
S"<class '__restricted__.Titleize'>"
p255
sS'embed64'
p256
S'<function embed64>'
p257
sS'list_groups'
p258
S'[2]'
p259
sS'IS_LIST_OF'
p260
S"<class 'gluon.validators.IS_LIST_OF'>"
p261
sS'user_visibility'
p262
S'<function user_visibility>'
p263
sS'DEBUG'
p264
g189
sS'__name__'
p265
S"'__restricted__'"
p266
sS'EMBED'
p267
S"<class 'gluon.html.EMBED'>"
p268
sS'FORM'
p269
S"<class 'gluon.html.FORM'>"
p270
sS'myconf'
p271
S"{'admin_user': {'username': 'admin', 'first_name...999.mailgun.org>', 'server': 'smtp.mailgun.org'}}"
p272
sS'H2'
p273
S"<class 'gluon.html.H2'>"
p274
sS'H3'
p275
S"<class 'gluon.html.H3'>"
p276
sS'AppConfig'
p277
S'<function AppConfig>'
p278
sS'H1'
p279
S"<class 'gluon.html.H1'>"
p280
sS'H6'
p281
S"<class 'gluon.html.H6'>"
p282
sS'H4'
p283
S"<class 'gluon.html.H4'>"
p284
sS'H5'
p285
S"<class 'gluon.html.H5'>"
p286
sS'UL'
p287
S"<class 'gluon.html.UL'>"
p288
sS'IS_UPPER'
p289
S"<class 'gluon.validators.IS_UPPER'>"
p290
sS'xmlescape'
p291
S'<function xmlescape>'
p292
sS'IS_TIME'
p293
S"<class 'gluon.validators.IS_TIME'>"
p294
sS'OPTION'
p295
S"<class 'gluon.html.OPTION'>"
p296
sS'TITLE'
p297
S"<class 'gluon.html.TITLE'>"
p298
sS'CRYPT'
p299
S"<class 'gluon.validators.CRYPT'>"
p300
sS'IS_EMPTY_OR'
p301
S"<class 'gluon.validators.IS_EMPTY_OR'>"
p302
sS'MARKMIN'
p303
S"<class 'gluon.html.MARKMIN'>"
p304
sS'INPUT'
p305
S"<class 'gluon.html.INPUT'>"
p306
sS'STRONG'
p307
S"<class 'gluon.html.STRONG'>"
p308
sS'COL'
p309
S"<class 'gluon.html.COL'>"
p310
sS'service'
p311
S'<gluon.tools.Service object>'
p312
sS'SCRIPT'
p313
S"<class 'gluon.html.SCRIPT'>"
p314
sS'mcg_date_widget'
p315
S'<function mcg_date_widget>'
p316
sS'master'
p317
S'<Rows (1)>'
p318
sS'TABLE'
p319
S"<class 'gluon.html.TABLE'>"
p320
sS'THEAD'
p321
S"<class 'gluon.html.THEAD'>"
p322
sS'IS_IPV4'
p323
S"<class 'gluon.validators.IS_IPV4'>"
p324
sS'IS_LENGTH'
p325
S"<class 'gluon.validators.IS_LENGTH'>"
p326
sS'IS_IPV6'
p327
S"<class 'gluon.validators.IS_IPV6'>"
p328
sS'XML'
p329
S"<class 'gluon.html.XML'>"
p330
sS'B'
S"<class 'gluon.html.B'>"
p331
sS'IMG'
p332
S"<class 'gluon.html.IMG'>"
p333
sS'SQLTABLE'
p334
S"<class 'gluon.sqlhtml.SQLTABLE'>"
p335
sS'IS_MATCH'
p336
S"<class 'gluon.validators.IS_MATCH'>"
p337
sS'IS_ALPHANUMERIC'
p338
S"<class 'gluon.validators.IS_ALPHANUMERIC'>"
p339
sS'SPAN'
p340
S"<class 'gluon.html.SPAN'>"
p341
sS'IS_JSON'
p342
S"<class 'gluon.validators.IS_JSON'>"
p343
sS'Field'
p344
S"<class 'pydal.objects.Field'>"
p345
sS'IS_IPADDRESS'
p346
S"<class 'gluon.validators.IS_IPADDRESS'>"
p347
sS'IS_SLUG'
p348
S"<class 'gluon.validators.IS_SLUG'>"
p349
sS'BEAUTIFY'
p350
S"<class 'gluon.html.BEAUTIFY'>"
p351
sS'META'
p352
S"<class 'gluon.html.META'>"
p353
sS'menu_new'
p354
g43
sS'BUTTON'
p355
S"<class 'gluon.html.BUTTON'>"
p356
sS'IS_DATE'
p357
S"<class 'gluon.validators.IS_DATE'>"
p358
sS'IS_EMAIL'
p359
S"<class 'gluon.validators.IS_EMAIL'>"
p360
sS'IS_NOT_EMPTY'
p361
S"<class 'gluon.validators.IS_NOT_EMPTY'>"
p362
sg56
S"<Storage {'_vars': None, 'function': 'manage', '...Python\\\\web2py\\\\applications\\\\web2py_starter\\\\'}>"
p363
sS'TBODY'
p364
S"<class 'gluon.html.TBODY'>"
p365
sS'myconf_env'
p366
S"'dev_'"
p367
sS'CAT'
p368
S"<class 'gluon.html.CAT'>"
p369
sS'menu_detalhe'
p370
S'<Rows (1)>'
p371
sS'IS_LIST_OF_EMAILS'
p372
S"<class 'gluon.validators.IS_LIST_OF_EMAILS'>"
p373
sS'DIV'
p374
S"<class 'gluon.html.DIV'>"
p375
sS'LEGEND'
p376
S"<class 'gluon.html.LEGEND'>"
p377
sS'COLGROUP'
p378
S"<class 'gluon.html.COLGROUP'>"
p379
sS'DAL'
p380
S"<class 'pydal.base.DAL'>"
p381
sS'ASSIGNJS'
p382
S'<function ASSIGNJS>'
p383
sS'TR'
p384
S"<class 'gluon.html.TR'>"
p385
sS'__package__'
p386
S'None'
p387
sS'IFRAME'
p388
S"<class 'gluon.html.IFRAME'>"
p389
sS'dal_regex_phone_num'
p390
S"r'^\\s*(?:\\+?(\\d{1,3}))?[-. (]*(\\d{3})[-. )]*(\\d{3})[-. ]*(\\d{4})(?: *x(\\d+))?\\s*$'"
p391
sS'TD'
p392
S"<class 'gluon.html.TD'>"
p393
sS'PluginManager'
p394
S"<class 'gluon.tools.PluginManager'>"
p395
sS'IS_URL'
p396
S"<class 'gluon.validators.IS_URL'>"
p397
sS'A'
S"<class 'gluon.html.A'>"
p398
sS'STYLE'
p399
S"<class 'gluon.html.STYLE'>"
p400
sS'IS_DATETIME_IN_RANGE'
p401
S"<class 'gluon.validators.IS_DATETIME_IN_RANGE'>"
p402
sS'IS_IMAGE'
p403
S"<class 'gluon.validators.IS_IMAGE'>"
p404
sS'I'
S"<class 'gluon.html.I'>"
p405
sS'__builtins__'
p406
S"{'ArithmeticError': <type 'exceptions.ArithmeticError'>, 'AssertionError': <type 'exceptions.AssertionError'>, 'AttributeError': <type 'exceptions.AttributeError'>, 'BaseException': <type 'exceptions.BaseException'>, 'BufferError': <type 'exceptions.BufferError'>, 'BytesWarning': <type 'exceptions.BytesWarning'>, 'DeprecationWarning': <type 'exceptions.DeprecationWarning'>, 'EOFError': <type 'exceptions.EOFError'>, 'Ellipsis': Ellipsis, 'EnvironmentError': <type 'exceptions.EnvironmentError'>, ...}"
p407
sS'IS_NOT_IN_DB'
p408
S"<class 'gluon.validators.IS_NOT_IN_DB'>"
p409
sS'FormWidget'
p410
S"<class 'gluon.sqlhtml.FormWidget'>"
p411
sg114
S"<Storage {'body': <cStringIO.StringO object at 0...0000000407D208>, 'view': 'appadmin/manage.html'}>"
p412
sS'STATUSES'
p413
S"[['1', 'Happy'], ['2', 'Sad']]"
p414
sS'dal_regex_na_phone_num'
p415
S"r'^(?:(?:\\+?1\\s*(?:[.-]\\s*)?)?(?:\\(\\s*([2-9]1[02-9...]{4})(?:\\s*(?:#|x\\.?|ext\\.?|extension)\\s*(\\d+))?$'"
p416
sS'ANY_OF'
p417
S"<class 'gluon.validators.ANY_OF'>"
p418
sS'IS_NULL_OR'
p419
S"<class 'gluon.validators.IS_EMPTY_OR'>"
p420
sS'IS_FLOAT_IN_RANGE'
p421
S"<class 'gluon.validators.IS_FLOAT_IN_RANGE'>"
p422
sS'IS_EXPR'
p423
S"<class 'gluon.validators.IS_EXPR'>"
p424
sS'IS_IN_SET'
p425
S"<class 'gluon.validators.IS_IN_SET'>"
p426
sS'sidebar_menu_item'
p427
S'<function sidebar_menu_item>'
p428
sS'IS_UPLOAD_FILENAME'
p429
S"<class 'gluon.validators.IS_UPLOAD_FILENAME'>"
p430
sS'IS_DECIMAL_IN_RANGE'
p431
S"<class 'gluon.validators.IS_DECIMAL_IN_RANGE'>"
p432
sS'TT'
p433
S"<class 'gluon.html.TT'>"
p434
sS'T'
S'<gluon.languages.translator object>'
p435
sssS'traceback'
p436
S'Traceback (most recent call last):\n  File "C:\\Python\\web2py\\gluon\\restricted.py", line 227, in restricted\n    exec ccode in environment\n  File "C:\\Python\\web2py\\applications\\web2py_starter\\models\\menu.py", line 72, in <module>\n    if not menu_new[row.f_menu_master]:\nKeyError: 1L\n'
p437
s.