(dp1
S'output'
p2
S'<class \'gluon.contrib.pymysql.err.InternalError\'> (1054, u"Unknown column \'auth_user.created_by\' in \'field list\'")'
p3
sS'layer'
p4
S'C:\\Python\\web2py\\applications\\wpstarter\\controllers/default.py'
p5
sS'code'
p6
S'# -*- coding: utf-8 -*-\n# this file is released under public domain and you can use without limitations\n\n\ndef index():\n    """\n    example action using the internationalization operator T and flash\n    rendered by views/default/index.html or views/generic.html\n\n    if you need a simple wiki simply replace the two lines below with:\n    return auth.wiki()\n    """\n    response.view_title = myconf.get(\'app.name\') + \' Home Page\'\n    return dict(message=\'\')\n\n\ndef about():\n    response.view_title = \'About\'\n    return dict()\n\n\ndef tou():\n    response.view_title = \'Terms of Use\'\n    return dict()\n\n\ndef privacy():\n    response.view_title = \'Privacy Policy\'\n    return dict()\n\n\ndef changelog():\n    response.view_title = \'Changelog and 3rd Party Services\'\n\n    import os\n    changelog_markmin = MARKMIN(\'\')\n    infile = open(os.path.join(request.folder, \'CHANGELOG\'))\n    for line in infile:\n        changelog_markmin += MARKMIN(line)\n\n    return dict(changelog_markmin=changelog_markmin)\n\n\ndef search():\n    tables = [db.dog, db.person]\n\n    items = []\n    for t in tables:\n        fields = [\n            t.id, t.title,\n            t.created_on, t.created_by,\n        ]\n        query = (t.title.contains(request.vars[\'q\']))\n        rows = db(query).select(*fields).render()\n        for r in rows:\n            items += [[t._singular, r.id, r.title, r.created_on, r.created_by]]\n\n    response.view_title = \'Search Results\'\n    return dict(\n        items=items\n    )\n\n\ndef user():\n    """\n    exposes:\n    http://..../[app]/default/user/login\n    http://..../[app]/default/user/logout\n    http://..../[app]/default/user/register\n    http://..../[app]/default/user/profile\n    http://..../[app]/default/user/retrieve_password\n    http://..../[app]/default/user/change_password\n    http://..../[app]/default/user/bulk_register\n    use @auth.requires_login()\n        @auth.requires_membership(\'group name\')\n        @auth.requires_permission(\'read\',\'table name\',record_id)\n    to decorate functions that need access control\n    also notice there is http://..../[app]/appadmin/manage/auth to allow administrator to manage users\n    """\n    response.view_title = \'\'\n\n    return dict(form=auth())\n\n\n@cache.action()\ndef download():\n    """\n    allows downloading of uploaded files\n    http://..../[app]/default/download/[filename]\n    """\n    return response.download(request, db)\n\n\ndef call():\n    """\n    exposes services. for example:\n    http://..../[app]/default/call/jsonrpc\n    decorate with @services.jsonrpc the functions to expose\n    supports xml, json, xmlrpc, jsonrpc, amfrpc, rss, csv\n    """\n    return service()\n\nresponse._vars=response._caller(user)\n'
p7
sS'snapshot'
p8
(dp9
sS'traceback'
p10
S'Traceback (most recent call last):\n  File "C:\\Python\\web2py\\gluon\\restricted.py", line 227, in restricted\n    exec ccode in environment\n  File "C:\\Python\\web2py\\applications\\wpstarter\\controllers/default.py", line 103, in <module>\n  File "C:\\Python\\web2py\\gluon\\globals.py", line 417, in <lambda>\n    self._caller = lambda f: f()\n  File "C:\\Python\\web2py\\applications\\wpstarter\\controllers/default.py", line 82, in user\n    return dict(form=auth())\n  File "C:\\Python\\web2py\\gluon\\tools.py", line 1941, in __call__\n    return getattr(self, args[0])()\n  File "C:\\Python\\web2py\\gluon\\tools.py", line 2963, in login\n    user = table_user(**{username: entered_username})\n  File "C:\\Python\\web2py\\gluon\\packages\\dal\\pydal\\objects.py", line 546, in __call__\n    orderby_on_limitby=False).first()\n  File "C:\\Python\\web2py\\gluon\\packages\\dal\\pydal\\objects.py", line 2020, in select\n    return adapter.select(self.query, fields, attributes)\n  File "C:\\Python\\web2py\\gluon\\packages\\dal\\pydal\\adapters\\base.py", line 1296, in select\n    return self._select_aux(sql,fields,attributes)\n  File "C:\\Python\\web2py\\gluon\\packages\\dal\\pydal\\adapters\\base.py", line 1253, in _select_aux\n    self.execute(sql)\n  File "C:\\Python\\web2py\\gluon\\packages\\dal\\pydal\\adapters\\base.py", line 1388, in execute\n    return self.log_execute(*a, **b)\n  File "C:\\Python\\web2py\\gluon\\packages\\dal\\pydal\\adapters\\base.py", line 1382, in log_execute\n    ret = self.get_cursor().execute(command, *a[1:], **b)\n  File "C:\\Python\\web2py\\gluon\\contrib\\pymysql\\cursors.py", line 117, in execute\n    self.errorhandler(self, exc, value)\n  File "C:\\Python\\web2py\\gluon\\contrib\\pymysql\\connections.py", line 202, in defaulterrorhandler\n    raise errorclass, errorvalue\nInternalError: (1054, u"Unknown column \'auth_user.created_by\' in \'field list\'")\n'
p11
s.