(dp1
S'output'
p2
S"<class 'sqlite3.OperationalError'> no such column: t_menu_group.f_grupo"
p3
sS'layer'
p4
S'C:\\Python\\web2py\\applications\\wpstarter_gh\\models\\menu.py'
p5
sS'code'
p6
S'# -*- coding: utf-8 -*-\n\n#########################################################################\n# Customize your APP title, subtitle and menus here\n#########################################################################\n\nresponse.logo_mini = IMG(_src=URL(\'static\', \'images/favicon.png\'), _alt=myconf.get(\'app.company\'), _width="30px")\n\n# response.logo = IMG(_src=URL(\'static\', \'images/favicon.png\'), _alt=myconf.get(\'app.company\'), _width="180px")\n# response.logo = SPAN(\'web\', B(2), \'py\', XML(\'&trade;&nbsp;\'))\nresponse.logo = myconf.get(\'app.abbreviation\')\n\n# default page title that appears in browser tabs and bookmarks\nresponse.title = \'%s: %s %s\' % (\n    myconf.get(\'app.abbreviation\'),\n    request.controller.replace(\'_\', \' \').title(),\n    request.function.replace(\'_\', \' \').title()\n)\n\nresponse.subtitle = \'\'\n\n# default view title that appears at top of default layout content section\nresponse.view_title = \'%s %s\' % (\n    request.controller.replace(\'_\', \' \').title(),\n    request.function.replace(\'_\', \' \').title()\n)\n\n# read more at http://dev.w3.org/html5/markup/meta.name.html\nresponse.meta.author = myconf.get(\'app.author\')\nresponse.meta.description = myconf.get(\'app.description\')\nresponse.meta.keywords = myconf.get(\'app.keywords\')\nresponse.meta.generator = myconf.get(\'app.generator\')\n\nresponse.company = myconf.get(\'app.company\')\nresponse.version = myconf.get(\'app.version\')\n\n# your http://google.com/analytics id\nresponse.google_analytics_id = None\n\n#====================================================================\n#novo menu - 26/12/2013\n\n\nfrom collections import defaultdict\n#carrega grupos pertencentes a esse user - funcao lista_grupos() em 0.py\nlist_groups = list_groups()\n#response.flash = lista_grupos\n#carrega o menu master numa vari[avel, pra nao precisar ficar acessando o BD toda hora\nmaster = db().select(db.t_menu_master.ALL,orderby=db.t_menu_master.f_order_master)\n#carrega to tabea do menu mua vari\xc3\xa1vel, contendo todos os dados para montagem do menu\ndetalhes = db().select(db.t_menu.ALL)\n#flitra os itens de menu fazendo join com a tabela t_menu_grupo - e flitrando com as que pertencem aos\n#gurpos do usu\xc3\xa1rio logado = lista_grupos\nmenu_detalhe = db(db.t_menu_group.f_grupo.belongs(list_groups)).select(db.t_menu.f_menu_master,\n   db.t_menu.id,\n        join=db.t_menu_group.on(db.t_menu_group.f_menu==db.t_menu.id),\n        groupby=db.t_menu.id,\n        orderby=db.t_menu.f_menu_order\n\n                                                                       )\n#atribui a vari\xc3\xa1vel Menu \xc3\xa0 um defaultlist - que \xc3\xa9 um dict que possuiu listas increment\xc3\xa1veis -\n#formando o Menu Master e Details\nmenu = defaultdict(list)\nmenu_new = dict()\n\n#itera sobre os tens de menu flitrados j\xc3\xa1 pelos grupos do usu\xc3\xa1rio detro da vari\xc3\xa1vel Menu\nfor row in menu_detalhe:\n    if int(row.id) not in menu[row.f_menu_master]:\n        menu[row.f_menu_master].append(int(row.id))\n        \nfor row in menu_detalhe:\n    if row.f_menu_master not in menu_new.keys():\n        menu_new[row.f_menu_master] = [row.id]\n    else:\n        menu_new[row.f_menu_master].append(int(row.id))\n        \n#print \'menu_new =>\', menu_new, \'\\n\'\n        \n        \nfor row in menu_detalhe:\n    if int(row.id) not in menu[row.f_menu_master]:\n        menu[row.f_menu_master].append(int(row.id))\n        \n#response.menu=menu_new\n#response.flash = menu\n\n#monta o menu propriamente dito em ciam da variavel que j\xc3\xa1 possui a estrutura do master detail\n#onde o m \xc3\xa9 o Id do Master e l a lista dos detalhes\n\nresponse.menu = []\nfor m, l in menu.iteritems():\n    master = db.t_menu_master[m]\n    item_master = {\'nome_master\':master[\'f_menu_master\'], \'iconemaster\': master[\'f_menu_master_icon\']}\n    internal_list=[]\n    for x in l:\n        menu_det = db.t_menu[x]\n        item = {\'nome\':menu_det[\'f_menu_detail\'],\'url\': URL(db.t_menu[x][\'f_menu_controller\'],menu_det[\'f_menu_function\']), \'icon\':menu_det[\'f_menu_detail_icon\']}\n        internal_list.append(item)\n    response.menu.append([item_master,internal_list])\n\n\'\'\'\nfor m in response.menu:\n    print \'m=>\', m, \'\\n\'\n    print \'m=>itens\', m[0][\'nome_master\'], m[0][\'iconemaster\'], \'\\n\\n\'\n\'\'\'\n\n    \n#print  XML(BEAUTIFY(response.menu))\n#print  response.menu\n#print \'\\n\'\n#print  menu\n\n'
p7
sS'snapshot'
p8
(dp9
S'exception'
p10
(dp11
S'__module__'
p12
S"'sqlite3'"
p13
sS'__getslice__'
p14
S"<method-wrapper '__getslice__' of OperationalError object>"
p15
sS'__str__'
p16
S"<method-wrapper '__str__' of OperationalError object>"
p17
sS'__reduce__'
p18
S'<built-in method __reduce__ of OperationalError object>'
p19
sS'__dict__'
p20
S'{}'
p21
sS'__sizeof__'
p22
S'<built-in method __sizeof__ of OperationalError object>'
p23
sS'__weakref__'
p24
S'None'
p25
sS'__init__'
p26
S"<method-wrapper '__init__' of OperationalError object>"
p27
sS'__setattr__'
p28
S"<method-wrapper '__setattr__' of OperationalError object>"
p29
sS'__reduce_ex__'
p30
S'<built-in method __reduce_ex__ of OperationalError object>'
p31
sS'__new__'
p32
S'<built-in method __new__ of type object>'
p33
sS'__format__'
p34
S'<built-in method __format__ of OperationalError object>'
p35
sS'__class__'
p36
S"<class 'sqlite3.OperationalError'>"
p37
sS'__doc__'
p38
S'None'
p39
sS'__getitem__'
p40
S"<method-wrapper '__getitem__' of OperationalError object>"
p41
sS'__setstate__'
p42
S'<built-in method __setstate__ of OperationalError object>'
p43
sS'__getattribute__'
p44
S"<method-wrapper '__getattribute__' of OperationalError object>"
p45
sS'args'
p46
S"('no such column: t_menu_group.f_grupo',)"
p47
sS'__subclasshook__'
p48
S'<built-in method __subclasshook__ of type object>'
p49
sS'__unicode__'
p50
S'<built-in method __unicode__ of OperationalError object>'
p51
sS'__delattr__'
p52
S"<method-wrapper '__delattr__' of OperationalError object>"
p53
sS'__repr__'
p54
S"<method-wrapper '__repr__' of OperationalError object>"
p55
sS'__hash__'
p56
S"<method-wrapper '__hash__' of OperationalError object>"
p57
ssS'evalue'
p58
S'no such column: t_menu_group.f_grupo'
p59
sS'request'
p60
cgluon.html
XML_unpickle
p61
(S's\x8ed\x00\x00<div><table><tr><td style="font-weight:bold;vertical-align:top;">ajax</td><td style="vertical-align:top;">:</td><td><div>False</div></td></tr><tr><td style="font-weight:bold;vertical-align:top;">application</td><td style="vertical-align:top;">:</td><td><div>wpstarter_gh</div></td></tr><tr><td style="font-weight:bold;vertical-align:top;">args</td><td style="vertical-align:top;">:</td><td><div><table></table></div></td></tr><tr><td style="font-weight:bold;vertical-align:top;">cid</td><td style="vertical-align:top;">:</td><td><div>None</div></td></tr><tr><td style="font-weight:bold;vertical-align:top;">client</td><td style="vertical-align:top;">:</td><td><div>10.0.0.232</div></td></tr><tr><td style="font-weight:bold;vertical-align:top;">controller</td><td style="vertical-align:top;">:</td><td><div>appadmin</div></td></tr><tr><td style="font-weight:bold;vertical-align:top;">cookies</td><td style="vertical-align:top;">:</td><td><div><table><tr><td style="font-weight:bold;vertical-align:top;">session_id_admin</td><td style="vertical-align:top;">:</td><td><div>10.0.0.232-c263a0a4-9faf-4ca1-8797-260261686e08<table><tr><td style="font-weight:bold;vertical-align:top;">comment</td><td style="vertical-align:top;">:</td><td><div></div></td></tr><tr><td style="font-weight:bold;vertical-align:top;">domain</td><td style="vertical-align:top;">:</td><td><div></div></td></tr><tr><td style="font-weight:bold;vertical-align:top;">expires</td><td style="vertical-align:top;">:</td><td><div></div></td></tr><tr><td style="font-weight:bold;vertical-align:top;">httponly</td><td style="vertical-align:top;">:</td><td><div></div></td></tr><tr><td style="font-weight:bold;vertical-align:top;">max-age</td><td style="vertical-align:top;">:</td><td><div></div></td></tr><tr><td style="font-weight:bold;vertical-align:top;">path</td><td style="vertical-align:top;">:</td><td><div></div></td></tr><tr><td style="font-weight:bold;vertical-align:top;">secure</td><td style="vertical-align:top;">:</td><td><div></div></td></tr><tr><td style="font-weight:bold;vertical-align:top;">version</td><td style="vertical-align:top;">:</td><td><div></div></td></tr></table></div></td></tr><tr><td style="font-weight:bold;vertical-align:top;">session_id_malharia</td><td style="vertical-align:top;">:</td><td><div>10.0.0.232-eae73443-2ada-4bf7-b139-0c56d7c38995<table><tr><td style="font-weight:bold;vertical-align:top;">comment</td><td style="vertical-align:top;">:</td><td><div></div></td></tr><tr><td style="font-weight:bold;vertical-align:top;">domain</td><td style="vertical-align:top;">:</td><td><div></div></td></tr><tr><td style="font-weight:bold;vertical-align:top;">expires</td><td style="vertical-align:top;">:</td><td><div></div></td></tr><tr><td style="font-weight:bold;vertical-align:top;">httponly</td><td style="vertical-align:top;">:</td><td><div></div></td></tr><tr><td style="font-weight:bold;vertical-align:top;">max-age</td><td style="vertical-align:top;">:</td><td><div></div></td></tr><tr><td style="font-weight:bold;vertical-align:top;">path</td><td style="vertical-align:top;">:</td><td><div></div></td></tr><tr><td style="font-weight:bold;vertical-align:top;">secure</td><td style="vertical-align:top;">:</td><td><div></div></td></tr><tr><td style="font-weight:bold;vertical-align:top;">version</td><td style="vertical-align:top;">:</td><td><div></div></td></tr></table></div></td></tr><tr><td style="font-weight:bold;vertical-align:top;">session_id_wpstarter</td><td style="vertical-align:top;">:</td><td><div>10.0.0.232-cb7e23c0-91d6-439a-b464-4b4884b268a9<table><tr><td style="font-weight:bold;vertical-align:top;">comment</td><td style="vertical-align:top;">:</td><td><div></div></td></tr><tr><td style="font-weight:bold;vertical-align:top;">domain</td><td style="vertical-align:top;">:</td><td><div></div></td></tr><tr><td style="font-weight:bold;vertical-align:top;">expires</td><td style="vertical-align:top;">:</td><td><div></div></td></tr><tr><td style="font-weight:bold;vertical-align:top;">httponly</td><td style="vertical-align:top;">:</td><td><div></div></td></tr><tr><td style="font-weight:bold;vertical-align:top;">max-age</td><td style="vertical-align:top;">:</td><td><div></div></td></tr><tr><td style="font-weight:bold;vertical-align:top;">path</td><td style="vertical-align:top;">:</td><td><div></div></td></tr><tr><td style="font-weight:bold;vertical-align:top;">secure</td><td style="vertical-align:top;">:</td><td><div></div></td></tr><tr><td style="font-weight:bold;vertical-align:top;">version</td><td style="vertical-align:top;">:</td><td><div></div></td></tr></table></div></td></tr><tr><td style="font-weight:bold;vertical-align:top;">session_id_wpstarter_gh</td><td style="vertical-align:top;">:</td><td><div>10.0.0.232-cb63189d-1ded-4520-82ca-256ea6f410e8<table><tr><td style="font-weight:bold;vertical-align:top;">comment</td><td style="vertical-align:top;">:</td><td><div></div></td></tr><tr><td style="font-weight:bold;vertical-align:top;">domain</td><td style="vertical-align:top;">:</td><td><div></div></td></tr><tr><td style="font-weight:bold;vertical-align:top;">expires</td><td style="vertical-align:top;">:</td><td><div></div></td></tr><tr><td style="font-weight:bold;vertical-align:top;">httponly</td><td style="vertical-align:top;">:</td><td><div></div></td></tr><tr><td style="font-weight:bold;vertical-align:top;">max-age</td><td style="vertical-align:top;">:</td><td><div></div></td></tr><tr><td style="font-weight:bold;vertical-align:top;">path</td><td style="vertical-align:top;">:</td><td><div></div></td></tr><tr><td style="font-weight:bold;vertical-align:top;">secure</td><td style="vertical-align:top;">:</td><td><div></div></td></tr><tr><td style="font-weight:bold;vertical-align:top;">version</td><td style="vertical-align:top;">:</td><td><div></div></td></tr></table></div></td></tr></table></div></td></tr><tr><td style="font-weight:bold;vertical-align:top;">env</td><td style="vertical-align:top;">:</td><td><div><table><tr><td style="font-weight:bold;vertical-align:top;">HTTP_ACCEPT</td><td style="vertical-align:top;">:</td><td><div>text/html,application/xhtml+xml,application/xml;q=0.9,image/webp,*/*;q=0.8</div></td></tr><tr><td style="font-weight:bold;vertical-align:top;">HTTP_ACCEPT_ENCODING</td><td style="vertical-align:top;">:</td><td><div>gzip, deflate, sdch</div></td></tr><tr><td style="font-weight:bold;vertical-align:top;">HTTP_ACCEPT_LANGUAGE</td><td style="vertical-align:top;">:</td><td><div>pt-BR,pt;q=0.8,he;q=0.6,en-US;q=0.4,en;q=0.2</div></td></tr><tr><td style="font-weight:bold;vertical-align:top;">HTTP_CACHE_CONTROL</td><td style="vertical-align:top;">:</td><td><div>max-age=0</div></td></tr><tr><td style="font-weight:bold;vertical-align:top;">HTTP_CONNECTION</td><td style="vertical-align:top;">:</td><td><div>keep-alive</div></td></tr><tr><td style="font-weight:bold;vertical-align:top;">HTTP_COOKIE</td><td style="vertical-align:top;">:</td><td><div>session_id_malharia=10.0.0.232-eae73443-2ada-4bf7-b139-0c56d7c38995; session_id_wpstarter=10.0.0.232-cb7e23c0-91d6-439a-b464-4b4884b268a9; session_id_admin=10.0.0.232-c263a0a4-9faf-4ca1-8797-260261686e08; session_id_wpstarter_gh=10.0.0.232-cb63189d-1ded-4520-82ca-256ea6f410e8</div></td></tr><tr><td style="font-weight:bold;vertical-align:top;">HTTP_HOST</td><td style="vertical-align:top;">:</td><td><div>10.0.0.232:8050</div></td></tr><tr><td style="font-weight:bold;vertical-align:top;">HTTP_REFERER</td><td style="vertical-align:top;">:</td><td><div>http://10.0.0.232:8050/wpstarter_gh/default/user/login?_next=%2Fwpstarter_gh%2Fappadmin%2Fmanage</div></td></tr><tr><td style="font-weight:bold;vertical-align:top;">HTTP_UPGRADE_INSECURE_REQUESTS</td><td style="vertical-align:top;">:</td><td><div>1</div></td></tr><tr><td style="font-weight:bold;vertical-align:top;">HTTP_USER_AGENT</td><td style="vertical-align:top;">:</td><td><div>Mozilla/5.0 (Windows NT 6.1; Win64; x64) AppleWebKit/537.36 (KHTML, like Gecko) Chrome/58.0.3029.110 Safari/537.36</div></td></tr><tr><td style="font-weight:bold;vertical-align:top;">PATH_INFO</td><td style="vertical-align:top;">:</td><td><div>/wpstarter_gh/appadmin/manage</div></td></tr><tr><td style="font-weight:bold;vertical-align:top;">QUERY_STRING</td><td style="vertical-align:top;">:</td><td><div></div></td></tr><tr><td style="font-weight:bold;vertical-align:top;">REMOTE_ADDR</td><td style="vertical-align:top;">:</td><td><div>10.0.0.232</div></td></tr><tr><td style="font-weight:bold;vertical-align:top;">REMOTE_PORT</td><td style="vertical-align:top;">:</td><td><div>60327</div></td></tr><tr><td style="font-weight:bold;vertical-align:top;">REQUEST_METHOD</td><td style="vertical-align:top;">:</td><td><div>GET</div></td></tr><tr><td style="font-weight:bold;vertical-align:top;">SCRIPT_NAME</td><td style="vertical-align:top;">:</td><td><div></div></td></tr><tr><td style="font-weight:bold;vertical-align:top;">SERVER_NAME</td><td style="vertical-align:top;">:</td><td><div>BRG129FBT4</div></td></tr><tr><td style="font-weight:bold;vertical-align:top;">SERVER_PORT</td><td style="vertical-align:top;">:</td><td><div>8050</div></td></tr><tr><td style="font-weight:bold;vertical-align:top;">SERVER_PROTOCOL</td><td style="vertical-align:top;">:</td><td><div>HTTP/1.1</div></td></tr><tr><td style="font-weight:bold;vertical-align:top;">SERVER_SOFTWARE</td><td style="vertical-align:top;">:</td><td><div>Rocket 1.2.6</div></td></tr><tr><td style="font-weight:bold;vertical-align:top;">app_folders</td><td style="vertical-align:top;">:</td><td><div>set([&#x27;C:\\\\Python\\\\web2py\\\\applications\\\\admin\\\\&#x27;, &#x27;C:\\\\Python\\\\web2py\\\\applications\\\\wpstarter_gh\\\\&#x27;, &#x27;C:\\\\Python\\\\web2py\\\\applications\\\\wpstarter\\\\&#x27;])</div></td></tr><tr><td style="font-weight:bold;vertical-align:top;">applications_parent</td><td style="vertical-align:top;">:</td><td><div>C:\\Python\\web2py</div></td></tr><tr><td style="font-weight:bold;vertical-align:top;">cmd_args</td><td style="vertical-align:top;">:</td><td><div><table></table></div></td></tr><tr><td style="font-weight:bold;vertical-align:top;">cmd_options</td><td style="vertical-align:top;">:</td><td><div>&lt;Values at 0x4436448: {&#x27;verbose&#x27;: False, &#x27;ip&#x27;: &#x27;10.0.0.232&#x27;, &#x27;debuglevel&#x27;: 30, &#x27;with_scheduler&#x27;: False, &#x27;shutdown_timeout&#x27;: 5, &#x27;taskbar&#x27;: False, &#x27;with_coverage&#x27;: False, &#x27;pid_filename&#x27;: &#x27;httpserver.pid&#x27;, &#x27;maxthreads&#x27;: None, &#x27;softcron&#x27;: False, &#x27;server_name&#x27;: &#x27;BRG129FBT4&#x27;, &#x27;bpython&#x27;: False, &#x27;nogui&#x27;: False, &#x27;port&#x27;: 8050, &#x27;print_errors&#x27;: False, &#x27;extcron&#x27;: False, &#x27;runcron&#x27;: False, &#x27;run_system_tests&#x27;: False, &#x27;test&#x27;: None, &#x27;folder&#x27;: &#x27;C:\\\\Python\\\\web2py&#x27;, &#x27;config&#x27;: &#x27;&#x27;, &#x27;minthreads&#x27;: None, &#x27;shell&#x27;: None, &#x27;run&#x27;: &#x27;&#x27;, &#x27;log_filename&#x27;: &#x27;httpserver.log&#x27;, &#x27;profiler_dir&#x27;: None, &#x27;args&#x27;: [&#x27;&#x27;], &#x27;socket_timeout&#x27;: 5, &#x27;ssl_ca_certificate&#x27;: None, &#x27;scheduler&#x27;: None, &#x27;interfaces&#x27;: None, &#x27;ssl_private_key&#x27;: &#x27;&#x27;, &#x27;gae&#x27;: None, &#x27;password&#x27;: &#x27;******&#x27;, &#x27;request_queue_size&#x27;: 5, &#x27;ssl_certificate&#x27;: &#x27;&#x27;, &#x27;cronjob&#x27;: False, &#x27;numthreads&#x27;: None, &#x27;quiet&#x27;: False, &#x27;import_models&#x27;: False, &#x27;timeout&#x27;: 10, &#x27;plain&#x27;: False, &#x27;nobanner&#x27;: False}&gt;</div></td></tr><tr><td style="font-weight:bold;vertical-align:top;">db_sessions</td><td style="vertical-align:top;">:</td><td><div>set([])</div></td></tr><tr><td style="font-weight:bold;vertical-align:top;">debugging</td><td style="vertical-align:top;">:</td><td><div>False</div></td></tr><tr><td style="font-weight:bold;vertical-align:top;">gluon_parent</td><td style="vertical-align:top;">:</td><td><div>C:\\Python\\web2py</div></td></tr><tr><td style="font-weight:bold;vertical-align:top;">http_accept</td><td style="vertical-align:top;">:</td><td><div>text/html,application/xhtml+xml,application/xml;q=0.9,image/webp,*/*;q=0.8</div></td></tr><tr><td style="font-weight:bold;vertical-align:top;">http_accept_encoding</td><td style="vertical-align:top;">:</td><td><div>gzip, deflate, sdch</div></td></tr><tr><td style="font-weight:bold;vertical-align:top;">http_accept_language</td><td style="vertical-align:top;">:</td><td><div>pt-BR,pt;q=0.8,he;q=0.6,en-US;q=0.4,en;q=0.2</div></td></tr><tr><td style="font-weight:bold;vertical-align:top;">http_cache_control</td><td style="vertical-align:top;">:</td><td><div>max-age=0</div></td></tr><tr><td style="font-weight:bold;vertical-align:top;">http_connection</td><td style="vertical-align:top;">:</td><td><div>keep-alive</div></td></tr><tr><td style="font-weight:bold;vertical-align:top;">http_cookie</td><td style="vertical-align:top;">:</td><td><div>session_id_malharia=10.0.0.232-eae73443-2ada-4bf7-b139-0c56d7c38995; session_id_wpstarter=10.0.0.232-cb7e23c0-91d6-439a-b464-4b4884b268a9; session_id_admin=10.0.0.232-c263a0a4-9faf-4ca1-8797-260261686e08; session_id_wpstarter_gh=10.0.0.232-cb63189d-1ded-4520-82ca-256ea6f410e8</div></td></tr><tr><td style="font-weight:bold;vertical-align:top;">http_host</td><td style="vertical-align:top;">:</td><td><div>10.0.0.232:8050</div></td></tr><tr><td style="font-weight:bold;vertical-align:top;">http_referer</td><td style="vertical-align:top;">:</td><td><div>http://10.0.0.232:8050/wpstarter_gh/default/user/login?_next=%2Fwpstarter_gh%2Fappadmin%2Fmanage</div></td></tr><tr><td style="font-weight:bold;vertical-align:top;">http_upgrade_insecure_requests</td><td style="vertical-align:top;">:</td><td><div>1</div></td></tr><tr><td style="font-weight:bold;vertical-align:top;">http_user_agent</td><td style="vertical-align:top;">:</td><td><div>Mozilla/5.0 (Windows NT 6.1; Win64; x64) AppleWebKit/537.36 (KHTML, like Gecko) Chrome/58.0.3029.110 Safari/537.36</div></td></tr><tr><td style="font-weight:bold;vertical-align:top;">is_jython</td><td style="vertical-align:top;">:</td><td><div>False</div></td></tr><tr><td style="font-weight:bold;vertical-align:top;">is_pypy</td><td style="vertical-align:top;">:</td><td><div>False</div></td></tr><tr><td style="font-weight:bold;vertical-align:top;">is_source</td><td style="vertical-align:top;">:</td><td><div>True</div></td></tr><tr><td style="font-weight:bold;vertical-align:top;">local_hosts</td><td style="vertical-align:top;">:</td><td><div><table><tr><td><div>192.168.100.1</div></td></tr><tr><td><div>BRG129FBT4.central.com.br</div></td></tr><tr><td><div>BRG129FBT4</div></td></tr><tr><td><div>::ffff:127.0.0.1</div></td></tr><tr><td><div>::1</div></td></tr><tr><td><div>192.168.99.1</div></td></tr><tr><td><div>fe80::7082:fc3e:4875:2892%19</div></td></tr><tr><td><div>fe80::f49f:5833:35f2:1e03%18</div></td></tr><tr><td><div>10.0.0.232</div></td></tr><tr><td><div>127.0.0.1</div></td></tr></table></div></td></tr><tr><td style="font-weight:bold;vertical-align:top;">path_info</td><td style="vertical-align:top;">:</td><td><div>/wpstarter_gh/appadmin/manage</div></td></tr><tr><td style="font-weight:bold;vertical-align:top;">query_string</td><td style="vertical-align:top;">:</td><td><div></div></td></tr><tr><td style="font-weight:bold;vertical-align:top;">remote_addr</td><td style="vertical-align:top;">:</td><td><div>10.0.0.232</div></td></tr><tr><td style="font-weight:bold;vertical-align:top;">remote_port</td><td style="vertical-align:top;">:</td><td><div>60327</div></td></tr><tr><td style="font-weight:bold;vertical-align:top;">request_method</td><td style="vertical-align:top;">:</td><td><div>GET</div></td></tr><tr><td style="font-weight:bold;vertical-align:top;">request_uri</td><td style="vertical-align:top;">:</td><td><div>/wpstarter_gh/appadmin/manage</div></td></tr><tr><td style="font-weight:bold;vertical-align:top;">script_name</td><td style="vertical-align:top;">:</td><td><div></div></td></tr><tr><td style="font-weight:bold;vertical-align:top;">server_name</td><td style="vertical-align:top;">:</td><td><div>BRG129FBT4</div></td></tr><tr><td style="font-weight:bold;vertical-align:top;">server_port</td><td style="vertical-align:top;">:</td><td><div>8050</div></td></tr><tr><td style="font-weight:bold;vertical-align:top;">server_protocol</td><td style="vertical-align:top;">:</td><td><div>HTTP/1.1</div></td></tr><tr><td style="font-weight:bold;vertical-align:top;">server_software</td><td style="vertical-align:top;">:</td><td><div>Rocket 1.2.6</div></td></tr><tr><td style="font-weight:bold;vertical-align:top;">web2py_path</td><td style="vertical-align:top;">:</td><td><div>C:\\Python\\web2py</div></td></tr><tr><td style="font-weight:bold;vertical-align:top;">web2py_version</td><td style="vertical-align:top;">:</td><td><div>2.14.6-stable+timestamp.2016.05.10.00.21.47</div></td></tr><tr><td style="font-weight:bold;vertical-align:top;">wsgi.errors</td><td style="vertical-align:top;">:</td><td><div>&lt;open file &#x27;&lt;stderr&gt;&#x27;, mode &#x27;w&#x27; at 0x0000000001E22150&gt;</div></td></tr><tr><td style="font-weight:bold;vertical-align:top;">wsgi.file_wrapper</td><td style="vertical-align:top;">:</td><td><div>&lt;class wsgiref.util.FileWrapper at 0x00000000043C0AC8&gt;</div></td></tr><tr><td style="font-weight:bold;vertical-align:top;">wsgi.input</td><td style="vertical-align:top;">:</td><td><div>&lt;socket._fileobject object at 0x00000000085A9570&gt;</div></td></tr><tr><td style="font-weight:bold;vertical-align:top;">wsgi.multiprocess</td><td style="vertical-align:top;">:</td><td><div>False</div></td></tr><tr><td style="font-weight:bold;vertical-align:top;">wsgi.multithread</td><td style="vertical-align:top;">:</td><td><div>True</div></td></tr><tr><td style="font-weight:bold;vertical-align:top;">wsgi.run_once</td><td style="vertical-align:top;">:</td><td><div>False</div></td></tr><tr><td style="font-weight:bold;vertical-align:top;">wsgi.url_scheme</td><td style="vertical-align:top;">:</td><td><div>http</div></td></tr><tr><td style="font-weight:bold;vertical-align:top;">wsgi.version</td><td style="vertical-align:top;">:</td><td><div><table><tr><td><div>1</div></td></tr><tr><td><div>0</div></td></tr></table></div></td></tr><tr><td style="font-weight:bold;vertical-align:top;">wsgi_errors</td><td style="vertical-align:top;">:</td><td><div>&lt;open file &#x27;&lt;stderr&gt;&#x27;, mode &#x27;w&#x27; at 0x0000000001E22150&gt;</div></td></tr><tr><td style="font-weight:bold;vertical-align:top;">wsgi_file_wrapper</td><td style="vertical-align:top;">:</td><td><div>&lt;class wsgiref.util.FileWrapper at 0x00000000043C0AC8&gt;</div></td></tr><tr><td style="font-weight:bold;vertical-align:top;">wsgi_input</td><td style="vertical-align:top;">:</td><td><div>&lt;socket._fileobject object at 0x00000000085A9570&gt;</div></td></tr><tr><td style="font-weight:bold;vertical-align:top;">wsgi_multiprocess</td><td style="vertical-align:top;">:</td><td><div>False</div></td></tr><tr><td style="font-weight:bold;vertical-align:top;">wsgi_multithread</td><td style="vertical-align:top;">:</td><td><div>True</div></td></tr><tr><td style="font-weight:bold;vertical-align:top;">wsgi_run_once</td><td style="vertical-align:top;">:</td><td><div>False</div></td></tr><tr><td style="font-weight:bold;vertical-align:top;">wsgi_url_scheme</td><td style="vertical-align:top;">:</td><td><div>http</div></td></tr><tr><td style="font-weight:bold;vertical-align:top;">wsgi_version</td><td style="vertical-align:top;">:</td><td><div><table><tr><td><div>1</div></td></tr><tr><td><div>0</div></td></tr></table></div></td></tr></table></div></td></tr><tr><td style="font-weight:bold;vertical-align:top;">extension</td><td style="vertical-align:top;">:</td><td><div>html</div></td></tr><tr><td style="font-weight:bold;vertical-align:top;">folder</td><td style="vertical-align:top;">:</td><td><div>C:\\Python\\web2py\\applications\\wpstarter_gh\\</div></td></tr><tr><td style="font-weight:bold;vertical-align:top;">function</td><td style="vertical-align:top;">:</td><td><div>manage</div></td></tr><tr><td style="font-weight:bold;vertical-align:top;">global_settings</td><td style="vertical-align:top;">:</td><td><div><table><tr><td style="font-weight:bold;vertical-align:top;">app_folders</td><td style="vertical-align:top;">:</td><td><div>set([&#x27;C:\\\\Python\\\\web2py\\\\applications\\\\admin\\\\&#x27;, &#x27;C:\\\\Python\\\\web2py\\\\applications\\\\wpstarter_gh\\\\&#x27;, &#x27;C:\\\\Python\\\\web2py\\\\applications\\\\wpstarter\\\\&#x27;])</div></td></tr><tr><td style="font-weight:bold;vertical-align:top;">applications_parent</td><td style="vertical-align:top;">:</td><td><div>C:\\Python\\web2py</div></td></tr><tr><td style="font-weight:bold;vertical-align:top;">cmd_args</td><td style="vertical-align:top;">:</td><td><div><table></table></div></td></tr><tr><td style="font-weight:bold;vertical-align:top;">cmd_options</td><td style="vertical-align:top;">:</td><td><div>&lt;Values at 0x4436448: {&#x27;verbose&#x27;: False, &#x27;ip&#x27;: &#x27;10.0.0.232&#x27;, &#x27;debuglevel&#x27;: 30, &#x27;with_scheduler&#x27;: False, &#x27;shutdown_timeout&#x27;: 5, &#x27;taskbar&#x27;: False, &#x27;with_coverage&#x27;: False, &#x27;pid_filename&#x27;: &#x27;httpserver.pid&#x27;, &#x27;maxthreads&#x27;: None, &#x27;softcron&#x27;: False, &#x27;server_name&#x27;: &#x27;BRG129FBT4&#x27;, &#x27;bpython&#x27;: False, &#x27;nogui&#x27;: False, &#x27;port&#x27;: 8050, &#x27;print_errors&#x27;: False, &#x27;extcron&#x27;: False, &#x27;runcron&#x27;: False, &#x27;run_system_tests&#x27;: False, &#x27;test&#x27;: None, &#x27;folder&#x27;: &#x27;C:\\\\Python\\\\web2py&#x27;, &#x27;config&#x27;: &#x27;&#x27;, &#x27;minthreads&#x27;: None, &#x27;shell&#x27;: None, &#x27;run&#x27;: &#x27;&#x27;, &#x27;log_filename&#x27;: &#x27;httpserver.log&#x27;, &#x27;profiler_dir&#x27;: None, &#x27;args&#x27;: [&#x27;&#x27;], &#x27;socket_timeout&#x27;: 5, &#x27;ssl_ca_certificate&#x27;: None, &#x27;scheduler&#x27;: None, &#x27;interfaces&#x27;: None, &#x27;ssl_private_key&#x27;: &#x27;&#x27;, &#x27;gae&#x27;: None, &#x27;password&#x27;: &#x27;******&#x27;, &#x27;request_queue_size&#x27;: 5, &#x27;ssl_certificate&#x27;: &#x27;&#x27;, &#x27;cronjob&#x27;: False, &#x27;numthreads&#x27;: None, &#x27;quiet&#x27;: False, &#x27;import_models&#x27;: False, &#x27;timeout&#x27;: 10, &#x27;plain&#x27;: False, &#x27;nobanner&#x27;: False}&gt;</div></td></tr><tr><td style="font-weight:bold;vertical-align:top;">db_sessions</td><td style="vertical-align:top;">:</td><td><div>set([])</div></td></tr><tr><td style="font-weight:bold;vertical-align:top;">debugging</td><td style="vertical-align:top;">:</td><td><div>False</div></td></tr><tr><td style="font-weight:bold;vertical-align:top;">gluon_parent</td><td style="vertical-align:top;">:</td><td><div>C:\\Python\\web2py</div></td></tr><tr><td style="font-weight:bold;vertical-align:top;">is_jython</td><td style="vertical-align:top;">:</td><td><div>False</div></td></tr><tr><td style="font-weight:bold;vertical-align:top;">is_pypy</td><td style="vertical-align:top;">:</td><td><div>False</div></td></tr><tr><td style="font-weight:bold;vertical-align:top;">is_source</td><td style="vertical-align:top;">:</td><td><div>True</div></td></tr><tr><td style="font-weight:bold;vertical-align:top;">local_hosts</td><td style="vertical-align:top;">:</td><td><div><table><tr><td><div>192.168.100.1</div></td></tr><tr><td><div>BRG129FBT4.central.com.br</div></td></tr><tr><td><div>BRG129FBT4</div></td></tr><tr><td><div>::ffff:127.0.0.1</div></td></tr><tr><td><div>::1</div></td></tr><tr><td><div>192.168.99.1</div></td></tr><tr><td><div>fe80::7082:fc3e:4875:2892%19</div></td></tr><tr><td><div>fe80::f49f:5833:35f2:1e03%18</div></td></tr><tr><td><div>10.0.0.232</div></td></tr><tr><td><div>127.0.0.1</div></td></tr></table></div></td></tr><tr><td style="font-weight:bold;vertical-align:top;">web2py_version</td><td style="vertical-align:top;">:</td><td><div>2.14.6-stable+timestamp.2016.05.10.00.21.47</div></td></tr></table></div></td></tr><tr><td style="font-weight:bold;vertical-align:top;">is_https</td><td style="vertical-align:top;">:</td><td><div>False</div></td></tr><tr><td style="font-weight:bold;vertical-align:top;">is_local</td><td style="vertical-align:top;">:</td><td><div>True</div></td></tr><tr><td style="font-weight:bold;vertical-align:top;">is_restful</td><td style="vertical-align:top;">:</td><td><div>False</div></td></tr><tr><td style="font-weight:bold;vertical-align:top;">is_scheduler</td><td style="vertical-align:top;">:</td><td><div>False</div></td></tr><tr><td style="font-weight:bold;vertical-align:top;">is_shell</td><td style="vertical-align:top;">:</td><td><div>False</div></td></tr><tr><td style="font-weight:bold;vertical-align:top;">now</td><td style="vertical-align:top;">:</td><td><div>datetime.datetime(2017, 5, 15, 17, 3, 56, 649000)</div></td></tr><tr><td style="font-weight:bold;vertical-align:top;">raw_args</td><td style="vertical-align:top;">:</td><td><div></div></td></tr><tr><td style="font-weight:bold;vertical-align:top;">raw_extension</td><td style="vertical-align:top;">:</td><td><div>None</div></td></tr><tr><td style="font-weight:bold;vertical-align:top;">url</td><td style="vertical-align:top;">:</td><td><div>/wpstarter_gh/appadmin/manage</div></td></tr><tr><td style="font-weight:bold;vertical-align:top;">utcnow</td><td style="vertical-align:top;">:</td><td><div>datetime.datetime(2017, 5, 15, 17, 3, 56, 649000)</div></td></tr><tr><td style="font-weight:bold;vertical-align:top;">wsgi</td><td style="vertical-align:top;">:</td><td><div>&lt;gluon.main.LazyWSGI object at 0x000000000A72DE10&gt;</div></td></tr></table></div>'
tRp62
sS'frames'
p63
(lp64
(dp65
S'file'
p66
S'C:\\Python\\web2py\\gluon\\restricted.py'
p67
sS'dump'
p68
(dp69
S'environment'
p70
S"{'A': <class 'gluon.html.A'>, 'ANY_OF': <class 'gluon.validators.ANY_OF'>, 'ASSIGNJS': <function ASSIGNJS>, 'AppConfig': <function AppConfig>, 'Auth': <class 'gluon.tools.Auth'>, 'B': <class 'gluon.html.B'>, 'BEAUTIFY': <class 'gluon.html.BEAUTIFY'>, 'BODY': <class 'gluon.html.BODY'>, 'BR': <class 'gluon.html.BR'>, 'BUTTON': <class 'gluon.html.BUTTON'>, ...}"
p71
sS'ccode'
p72
S'<code object <module> at 000000000B590330, file ...pplications\\wpstarter_gh\\models\\menu.py", line 7>'
p73
ssS'lnum'
p74
I227
sS'lines'
p75
(dp76
I224
S'            ccode = code'
p77
sI225
S'        else:'
p78
sI226
S'            ccode = compile2(code, layer)'
p79
sI227
S'        exec ccode in environment'
p80
sI228
S'    except HTTP:'
p81
sI229
S'        raise'
p82
sI230
S'    except RestrictedError:'
p83
sI231
S'        # do not encapsulate (obfuscate) the original RestrictedError'
p84
sI222
S'    try:'
p85
sI223
S'        if isinstance(code, types.CodeType):'
p86
ssS'call'
p87
S'(code="# -*- coding: utf-8 -*-\\n\\n#######################...\\n#print  response.menu\\n#print \'\\\\n\'\\n#print  menu\\n\\n", environment={\'A\': <class \'gluon.html.A\'>, \'ANY_OF\': <class \'gluon.validators.ANY_OF\'>, \'ASSIGNJS\': <function ASSIGNJS>, \'AppConfig\': <function AppConfig>, \'Auth\': <class \'gluon.tools.Auth\'>, \'B\': <class \'gluon.html.B\'>, \'BEAUTIFY\': <class \'gluon.html.BEAUTIFY\'>, \'BODY\': <class \'gluon.html.BODY\'>, \'BR\': <class \'gluon.html.BR\'>, \'BUTTON\': <class \'gluon.html.BUTTON\'>, ...}, layer=r\'C:\\Python\\web2py\\applications\\wpstarter_gh\\models\\menu.py\')'
p88
sS'func'
p89
S'restricted'
p90
sa(dp91
g66
S'C:\\Python\\web2py\\applications\\wpstarter_gh\\models\\menu.py'
p92
sg68
(dp93
S'orderby'
p94
S'undefined'
p95
sS'db.t_menu.f_menu_order'
p96
S'<pydal.objects.Field object>'
p97
sS'db'
p98
S'<DAL uri="sqlite://storage.sqlite">'
p99
sS'db.t_menu'
p100
S'<Table t_menu (id, f_menu_master, f_menu_detail,...ler, f_menu_function, f_menu_order, f_need_sign)>'
p101
ssg74
I58
sg75
(dp102
I53
S'#gurpos do usu\xc3\xa1rio logado = lista_grupos'
p103
sI54
S'menu_detalhe = db(db.t_menu_group.f_grupo.belongs(list_groups)).select(db.t_menu.f_menu_master,'
p104
sI55
S'   db.t_menu.id,'
p105
sI56
S'        join=db.t_menu_group.on(db.t_menu_group.f_menu==db.t_menu.id),'
p106
sI57
S'        groupby=db.t_menu.id,'
p107
sI58
S'        orderby=db.t_menu.f_menu_order'
p108
sI59
S''
sI60
S'                                                                       )'
p109
sI61
S'#atribui a vari\xc3\xa1vel Menu \xc3\xa0 um defaultlist - que \xc3\xa9 um dict que possuiu listas increment\xc3\xa1veis -'
p110
sI62
S'#formando o Menu Master e Details'
p111
ssg87
S'()'
p112
sg89
S'<module>'
p113
sa(dp114
g66
S'C:\\Python\\web2py\\gluon\\packages\\dal\\pydal\\objects.py'
p115
sg68
(dp116
S'self.query'
p117
S'<Query (t_menu_group.f_grupo IN (1,2))>'
p118
sS'adapter.select'
p119
S'<bound method SQLiteAdapter.select of <pydal.adapters.sqlite.SQLiteAdapter object>>'
p120
sS'fields'
p121
S'[<pydal.objects.Field object>, <pydal.objects.Field object>]'
p122
sS'adapter'
p123
S'<pydal.adapters.sqlite.SQLiteAdapter object>'
p124
sS'attributes'
p125
S"{'groupby': <pydal.objects.Field object>, 'join': <pydal.objects.Expression object>, 'orderby': <pydal.objects.Field object>}"
p126
sS'self'
p127
S'<Set (t_menu_group.f_grupo IN (1,2))>'
p128
ssg74
I2020
sg75
(dp129
I2016
S"                                    attributes.get('left', None),"
p130
sI2017
S"                                    attributes.get('orderby', None),"
p131
sI2018
S"                                    attributes.get('groupby', None))"
p132
sI2019
S'        fields = adapter.expand_all(fields, tablenames)'
p133
sI2020
S'        return adapter.select(self.query, fields, attributes)'
p134
sI2021
S''
sI2022
S'    def iterselect(self, *fields, **attributes):'
p135
sI2023
S'        adapter = self.db._adapter'
p136
sI2024
S'        tablenames = adapter.tables(self.query,'
p137
sI2015
S"                                    attributes.get('join', None),"
p138
ssg87
S"(self=<Set (t_menu_group.f_grupo IN (1,2))>, *fields=[<pydal.objects.Field object>, <pydal.objects.Field object>], **attributes={'groupby': <pydal.objects.Field object>, 'join': <pydal.objects.Expression object>, 'orderby': <pydal.objects.Field object>})"
p139
sg89
S'select'
p140
sa(dp141
g66
S'C:\\Python\\web2py\\gluon\\packages\\dal\\pydal\\adapters\\sqlite.py'
p142
sg68
(dp143
S'fields'
p144
S'[<pydal.objects.Field object>, <pydal.objects.Field object>]'
p145
sS'self'
p146
S'<pydal.adapters.sqlite.SQLiteAdapter object>'
p147
sS').select'
p148
S'<bound method SQLiteAdapter.select of <pydal.adapters.sqlite.SQLiteAdapter object>>'
p149
sS'attributes'
p150
S"{'groupby': <pydal.objects.Field object>, 'join': <pydal.objects.Expression object>, 'orderby': <pydal.objects.Field object>}"
p151
sS'global SQLiteAdapter'
p152
S"<class 'pydal.adapters.sqlite.SQLiteAdapter'>"
p153
sS'query'
p154
S'<Query (t_menu_group.f_grupo IN (1,2))>'
p155
sS'builtinsuper'
p156
S"<type 'super'>"
p157
ssg74
I123
sg75
(dp158
I118
S'        Note that the entire database, rather than one record, is locked'
p159
sI119
S'        (it will be locked eventually anyway by the following UPDATE).'
p160
sI120
S'        """'
p161
sI121
S"        if attributes.get('for_update', False) and not 'cache' in attributes:"
p162
sI122
S"            self.execute('BEGIN IMMEDIATE TRANSACTION;')"
p163
sI123
S'        return super(SQLiteAdapter, self).select(query, fields, attributes)'
p164
sI124
S''
sI125
S''
sI126
S'SPATIALLIBS = {'
p165
sI127
S"    'Windows':'mod_spatialite.dll',"
p166
ssg87
S"(self=<pydal.adapters.sqlite.SQLiteAdapter object>, query=<Query (t_menu_group.f_grupo IN (1,2))>, fields=[<pydal.objects.Field object>, <pydal.objects.Field object>], attributes={'groupby': <pydal.objects.Field object>, 'join': <pydal.objects.Expression object>, 'orderby': <pydal.objects.Field object>})"
p167
sg89
g140
sa(dp168
g66
S'C:\\Python\\web2py\\gluon\\packages\\dal\\pydal\\adapters\\base.py'
p169
sg68
(dp170
S'fields'
p171
S'[<pydal.objects.Field object>, <pydal.objects.Field object>]'
p172
sS'self'
p173
S'<pydal.adapters.sqlite.SQLiteAdapter object>'
p174
sS'attributes'
p175
S"{'groupby': <pydal.objects.Field object>, 'join': <pydal.objects.Expression object>, 'orderby': <pydal.objects.Field object>}"
p176
sS'self._select_aux'
p177
S'<bound method SQLiteAdapter._select_aux of <pydal.adapters.sqlite.SQLiteAdapter object>>'
p178
sS'sql'
p179
S"'SELECT  t_menu.f_menu_master, t_menu.id FROM t_m... GROUP BY t_menu.id ORDER BY t_menu.f_menu_order;'"
p180
ssg74
I1296
sg75
(dp181
I1291
S'            return cache_model('
p182
sI1292
S'                key,'
p183
sI1293
S'                lambda self=self,args=args:self._select_aux(*args),'
p184
sI1294
S'                time_expire)'
p185
sI1295
S'        else:'
p186
sI1296
S'            return self._select_aux(sql,fields,attributes)'
p187
sI1297
S''
sI1298
S'    def iterselect(self, query, fields, attributes):'
p188
sI1299
S'        sql = self._select(query, fields, attributes)'
p189
sI1300
S"        cacheable = attributes.get('cacheable', False)"
p190
ssg87
S"(self=<pydal.adapters.sqlite.SQLiteAdapter object>, query=<Query (t_menu_group.f_grupo IN (1,2))>, fields=[<pydal.objects.Field object>, <pydal.objects.Field object>], attributes={'groupby': <pydal.objects.Field object>, 'join': <pydal.objects.Expression object>, 'orderby': <pydal.objects.Field object>})"
p191
sg89
g140
sa(dp192
g66
S'C:\\Python\\web2py\\gluon\\packages\\dal\\pydal\\adapters\\base.py'
p193
sg68
(dp194
S'self'
p195
S'<pydal.adapters.sqlite.SQLiteAdapter object>'
p196
sS'self.execute'
p197
S'<bound method SQLiteAdapter.execute of <pydal.adapters.sqlite.SQLiteAdapter object>>'
p198
sS'sql'
p199
S"'SELECT  t_menu.f_menu_master, t_menu.id FROM t_m... GROUP BY t_menu.id ORDER BY t_menu.f_menu_order;'"
p200
ssg74
I1253
sg75
(dp201
I1248
S''
sI1249
S'    def _select_aux(self, sql, fields, attributes):'
p202
sI1250
S'        args_get = attributes.get'
p203
sI1251
S"        cache = args_get('cache',None)"
p204
sI1252
S'        if not cache:'
p205
sI1253
S'            self.execute(sql)'
p206
sI1254
S'            rows = self._fetchall()'
p207
sI1255
S'        else:'
p208
sI1256
S'            if isinstance(cache, dict):'
p209
sI1257
S"                cache_model = cache['model']"
p210
ssg87
S"(self=<pydal.adapters.sqlite.SQLiteAdapter object>, sql='SELECT  t_menu.f_menu_master, t_menu.id FROM t_m... GROUP BY t_menu.id ORDER BY t_menu.f_menu_order;', fields=[<pydal.objects.Field object>, <pydal.objects.Field object>], attributes={'groupby': <pydal.objects.Field object>, 'join': <pydal.objects.Expression object>, 'orderby': <pydal.objects.Field object>})"
p211
sg89
S'_select_aux'
p212
sa(dp213
g66
S'C:\\Python\\web2py\\gluon\\packages\\dal\\pydal\\adapters\\base.py'
p214
sg68
(dp215
S'a'
S"('SELECT  t_menu.f_menu_master, t_menu.id FROM t_m... GROUP BY t_menu.id ORDER BY t_menu.f_menu_order;',)"
p216
sS'self'
p217
S'<pydal.adapters.sqlite.SQLiteAdapter object>'
p218
sS'b'
g21
sS'self.log_execute'
p219
S'<bound method SQLiteAdapter.log_execute of <pydal.adapters.sqlite.SQLiteAdapter object>>'
p220
ssg74
I1388
sg75
(dp221
I1383
S'        self.db._timings.append((command,time.time()-t0))'
p222
sI1384
S'        del self.db._timings[:-TIMINGSSIZE]'
p223
sI1385
S'        return ret'
p224
sI1386
S''
sI1387
S'    def execute(self, *a, **b):'
p225
sI1388
S'        return self.log_execute(*a, **b)'
p226
sI1389
S''
sI1390
S'    def execute_test_query(self):'
p227
sI1391
S'        return self.execute(self.test_query)'
p228
sI1392
S''
ssg87
S"(self=<pydal.adapters.sqlite.SQLiteAdapter object>, *a=('SELECT  t_menu.f_menu_master, t_menu.id FROM t_m... GROUP BY t_menu.id ORDER BY t_menu.f_menu_order;',), **b={})"
p229
sg89
S'execute'
p230
sa(dp231
g66
S'C:\\Python\\web2py\\gluon\\packages\\dal\\pydal\\adapters\\base.py'
p232
sg68
(dp233
S'a'
S"('SELECT  t_menu.f_menu_master, t_menu.id FROM t_m... GROUP BY t_menu.id ORDER BY t_menu.f_menu_order;',)"
p234
sS'b'
g21
sS'self'
p235
S'<pydal.adapters.sqlite.SQLiteAdapter object>'
p236
sS'ret'
p237
g95
sS'command'
p238
S"'SELECT  t_menu.f_menu_master, t_menu.id FROM t_m... GROUP BY t_menu.id ORDER BY t_menu.f_menu_order;'"
p239
sS'self.get_cursor'
p240
S'<bound method SQLiteAdapter.get_cursor of <pydal.adapters.sqlite.SQLiteAdapter object>>'
p241
sS').execute'
p242
g95
ssg74
I1382
sg75
(dp243
I1377
S'            command = self.filter_sql_command(command)'
p244
sI1378
S'        if self.db._debug:'
p245
sI1379
S"            self.db.logger.debug('SQL: %s' % command)"
p246
sI1380
S'        self.db._lastsql = command'
p247
sI1381
S'        t0 = time.time()'
p248
sI1382
S'        ret = self.get_cursor().execute(command, *a[1:], **b)'
p249
sI1383
S'        self.db._timings.append((command,time.time()-t0))'
p250
sI1384
S'        del self.db._timings[:-TIMINGSSIZE]'
p251
sI1385
S'        return ret'
p252
sI1386
S''
ssg87
S"(self=<pydal.adapters.sqlite.SQLiteAdapter object>, *a=('SELECT  t_menu.f_menu_master, t_menu.id FROM t_m... GROUP BY t_menu.id ORDER BY t_menu.f_menu_order;',), **b={})"
p253
sg89
S'log_execute'
p254
sasS'pyver'
p255
S'Python 2.7.12: C:\\Python27\\python.exe (prefix: C:\\Python27)'
p256
sS'session'
p257
g61
(S's\xc4\x11\x00\x00<div><table><tr><td style="font-weight:bold;vertical-align:top;">auth</td><td style="vertical-align:top;">:</td><td><div><table><tr><td style="font-weight:bold;vertical-align:top;">expiration</td><td style="vertical-align:top;">:</td><td><div>86400</div></td></tr><tr><td style="font-weight:bold;vertical-align:top;">hmac_key</td><td style="vertical-align:top;">:</td><td><div>c1e5782a-eb34-405e-a2ee-75e7db1260b6</div></td></tr><tr><td style="font-weight:bold;vertical-align:top;">last_visit</td><td style="vertical-align:top;">:</td><td><div>datetime.datetime(2017, 5, 15, 17, 3, 56, 544000)</div></td></tr><tr><td style="font-weight:bold;vertical-align:top;">remember_me</td><td style="vertical-align:top;">:</td><td><div>False</div></td></tr><tr><td style="font-weight:bold;vertical-align:top;">user</td><td style="vertical-align:top;">:</td><td><div><table><tr><td style="font-weight:bold;vertical-align:top;">bookmarks</td><td style="vertical-align:top;">:</td><td><div>{}</div></td></tr><tr><td style="font-weight:bold;vertical-align:top;">created_by</td><td style="vertical-align:top;">:</td><td><div>None</div></td></tr><tr><td style="font-weight:bold;vertical-align:top;">created_on</td><td style="vertical-align:top;">:</td><td><div>datetime.datetime(2017, 5, 13, 22, 45, 43)</div></td></tr><tr><td style="font-weight:bold;vertical-align:top;">email</td><td style="vertical-align:top;">:</td><td><div>admin@domain.com</div></td></tr><tr><td style="font-weight:bold;vertical-align:top;">first_name</td><td style="vertical-align:top;">:</td><td><div>Admin</div></td></tr><tr><td style="font-weight:bold;vertical-align:top;">id</td><td style="vertical-align:top;">:</td><td><div>1L</div></td></tr><tr><td style="font-weight:bold;vertical-align:top;">is_active</td><td style="vertical-align:top;">:</td><td><div>True</div></td></tr><tr><td style="font-weight:bold;vertical-align:top;">last_name</td><td style="vertical-align:top;">:</td><td><div>User</div></td></tr><tr><td style="font-weight:bold;vertical-align:top;">modified_by</td><td style="vertical-align:top;">:</td><td><div>None</div></td></tr><tr><td style="font-weight:bold;vertical-align:top;">modified_on</td><td style="vertical-align:top;">:</td><td><div>datetime.datetime(2017, 5, 13, 22, 45, 43)</div></td></tr><tr><td style="font-weight:bold;vertical-align:top;">registration_id</td><td style="vertical-align:top;">:</td><td><div></div></td></tr><tr><td style="font-weight:bold;vertical-align:top;">registration_key</td><td style="vertical-align:top;">:</td><td><div></div></td></tr><tr><td style="font-weight:bold;vertical-align:top;">reset_password_key</td><td style="vertical-align:top;">:</td><td><div></div></td></tr><tr><td style="font-weight:bold;vertical-align:top;">username</td><td style="vertical-align:top;">:</td><td><div>admin</div></td></tr></table></div></td></tr><tr><td style="font-weight:bold;vertical-align:top;">user_groups</td><td style="vertical-align:top;">:</td><td><div><table><tr><td style="font-weight:bold;vertical-align:top;">1</td><td style="vertical-align:top;">:</td><td><div>Super Admin</div></td></tr><tr><td style="font-weight:bold;vertical-align:top;">2</td><td style="vertical-align:top;">:</td><td><div>Admin</div></td></tr></table></div></td></tr></table></div></td></tr><tr><td style="font-weight:bold;vertical-align:top;">breadcrumbs</td><td style="vertical-align:top;">:</td><td><div><table><tr><td><div><table><tr><td style="font-weight:bold;vertical-align:top;">icon</td><td style="vertical-align:top;">:</td><td><div>database</div></td></tr><tr><td style="font-weight:bold;vertical-align:top;">label</td><td style="vertical-align:top;">:</td><td><div>Manage Db</div></td></tr><tr><td style="font-weight:bold;vertical-align:top;">url</td><td style="vertical-align:top;">:</td><td><div>/wpstarter_gh/appadmin/manage/db</div></td></tr></table></div></td></tr><tr><td><div><table><tr><td style="font-weight:bold;vertical-align:top;">icon</td><td style="vertical-align:top;">:</td><td><div>bookmark</div></td></tr><tr><td style="font-weight:bold;vertical-align:top;">label</td><td style="vertical-align:top;">:</td><td><div>User</div></td></tr><tr><td style="font-weight:bold;vertical-align:top;">url</td><td style="vertical-align:top;">:</td><td><div>/wpstarter_gh/default/user/login?_next=%2Fwpstarter_gh%2Fappadmin%2Fmanage</div></td></tr></table></div></td></tr></table></div></td></tr><tr><td style="font-weight:bold;vertical-align:top;">flash</td><td style="vertical-align:top;">:</td><td><div>None</div></td></tr></table></div>'
tRp258
sS'etype'
p259
S"<class 'sqlite3.OperationalError'>"
p260
sS'date'
p261
S'Mon May 15 14:03:56 2017'
p262
sS'response'
p263
g61
(S's\xfc\x1e\x00\x00<div><table><tr><td style="font-weight:bold;vertical-align:top;">body</td><td style="vertical-align:top;">:</td><td><div>&lt;cStringIO.StringO object at 0x0000000004C0FA40&gt;</div></td></tr><tr><td style="font-weight:bold;vertical-align:top;">company</td><td style="vertical-align:top;">:</td><td><div>Company ABC</div></td></tr><tr><td style="font-weight:bold;vertical-align:top;">cookies</td><td style="vertical-align:top;">:</td><td><div><table><tr><td style="font-weight:bold;vertical-align:top;">session_id_wpstarter_gh</td><td style="vertical-align:top;">:</td><td><div>10.0.0.232-cb63189d-1ded-4520-82ca-256ea6f410e8<table><tr><td style="font-weight:bold;vertical-align:top;">comment</td><td style="vertical-align:top;">:</td><td><div></div></td></tr><tr><td style="font-weight:bold;vertical-align:top;">domain</td><td style="vertical-align:top;">:</td><td><div></div></td></tr><tr><td style="font-weight:bold;vertical-align:top;">expires</td><td style="vertical-align:top;">:</td><td><div></div></td></tr><tr><td style="font-weight:bold;vertical-align:top;">httponly</td><td style="vertical-align:top;">:</td><td><div></div></td></tr><tr><td style="font-weight:bold;vertical-align:top;">max-age</td><td style="vertical-align:top;">:</td><td><div></div></td></tr><tr><td style="font-weight:bold;vertical-align:top;">path</td><td style="vertical-align:top;">:</td><td><div>/</div></td></tr><tr><td style="font-weight:bold;vertical-align:top;">secure</td><td style="vertical-align:top;">:</td><td><div></div></td></tr><tr><td style="font-weight:bold;vertical-align:top;">version</td><td style="vertical-align:top;">:</td><td><div></div></td></tr></table></div></td></tr></table></div></td></tr><tr><td style="font-weight:bold;vertical-align:top;">delimiters</td><td style="vertical-align:top;">:</td><td><div><table><tr><td><div>{{</div></td></tr><tr><td><div>}}</div></td></tr></table></div></td></tr><tr><td style="font-weight:bold;vertical-align:top;">files</td><td style="vertical-align:top;">:</td><td><div><table></table></div></td></tr><tr><td style="font-weight:bold;vertical-align:top;">flash</td><td style="vertical-align:top;">:</td><td><div>Logged in</div></td></tr><tr><td style="font-weight:bold;vertical-align:top;">form_label_separator</td><td style="vertical-align:top;">:</td><td><div></div></td></tr><tr><td style="font-weight:bold;vertical-align:top;">formstyle</td><td style="vertical-align:top;">:</td><td><div>bootstrap3_inline</div></td></tr><tr><td style="font-weight:bold;vertical-align:top;">generic_patterns</td><td style="vertical-align:top;">:</td><td><div><table><tr><td><div>*</div></td></tr></table></div></td></tr><tr><td style="font-weight:bold;vertical-align:top;">google_analytics_id</td><td style="vertical-align:top;">:</td><td><div>None</div></td></tr><tr><td style="font-weight:bold;vertical-align:top;">headers</td><td style="vertical-align:top;">:</td><td><div><table><tr><td style="font-weight:bold;vertical-align:top;">X-Powered-By</td><td style="vertical-align:top;">:</td><td><div>web2py</div></td></tr></table></div></td></tr><tr><td style="font-weight:bold;vertical-align:top;">logo</td><td style="vertical-align:top;">:</td><td><div>w2p</div></td></tr><tr><td style="font-weight:bold;vertical-align:top;">logo_mini</td><td style="vertical-align:top;">:</td><td><div><img alt="Company ABC" src="/wpstarter_gh/static/images/favicon.png" width="30px" /></div></td></tr><tr><td style="font-weight:bold;vertical-align:top;">menu</td><td style="vertical-align:top;">:</td><td><div><table></table></div></td></tr><tr><td style="font-weight:bold;vertical-align:top;">meta</td><td style="vertical-align:top;">:</td><td><div><table><tr><td style="font-weight:bold;vertical-align:top;">author</td><td style="vertical-align:top;">:</td><td><div>Your Name &lt;you@example.com&gt;</div></td></tr><tr><td style="font-weight:bold;vertical-align:top;">description</td><td style="vertical-align:top;">:</td><td><div>a cool new app</div></td></tr><tr><td style="font-weight:bold;vertical-align:top;">generator</td><td style="vertical-align:top;">:</td><td><div>Web2py Web Framework</div></td></tr><tr><td style="font-weight:bold;vertical-align:top;">keywords</td><td style="vertical-align:top;">:</td><td><div><table><tr><td><div>web2py</div></td></tr><tr><td><div>python</div></td></tr><tr><td><div>framework</div></td></tr></table></div></td></tr></table></div></td></tr><tr><td style="font-weight:bold;vertical-align:top;">models_to_run</td><td style="vertical-align:top;">:</td><td><div><table><tr><td><div>^\\w+\\.py$</div></td></tr><tr><td><div>^appadmin/\\w+\\.py$</div></td></tr><tr><td><div>^appadmin/manage/\\w+\\.py$</div></td></tr></table></div></td></tr><tr><td style="font-weight:bold;vertical-align:top;">postprocessing</td><td style="vertical-align:top;">:</td><td><div><table></table></div></td></tr><tr><td style="font-weight:bold;vertical-align:top;">session_client</td><td style="vertical-align:top;">:</td><td><div>10.0.0.232</div></td></tr><tr><td style="font-weight:bold;vertical-align:top;">session_cookie_compression_level</td><td style="vertical-align:top;">:</td><td><div>None</div></td></tr><tr><td style="font-weight:bold;vertical-align:top;">session_cookie_expires</td><td style="vertical-align:top;">:</td><td><div>None</div></td></tr><tr><td style="font-weight:bold;vertical-align:top;">session_data_name</td><td style="vertical-align:top;">:</td><td><div>session_data_wpstarter_gh</div></td></tr><tr><td style="font-weight:bold;vertical-align:top;">session_file</td><td style="vertical-align:top;">:</td><td><div>&lt;open file &#x27;C:\\\\Python\\\\web2py\\\\applications\\\\wpstarter_gh\\\\sessions\\\\195\\\\0b8\\\\10.0.0.232-cb63189d-1ded-4520-82ca-256ea6f410e8&#x27;, mode &#x27;rb+&#x27; at 0x000000000495A390&gt;</div></td></tr><tr><td style="font-weight:bold;vertical-align:top;">session_filename</td><td style="vertical-align:top;">:</td><td><div>C:\\Python\\web2py\\applications\\wpstarter_gh\\sessions\\10.0.0.232-cb63189d-1ded-4520-82ca-256ea6f410e8</div></td></tr><tr><td style="font-weight:bold;vertical-align:top;">session_hash</td><td style="vertical-align:top;">:</td><td><div>1b67d70334dd4e08bc425bbfd0e40fd2</div></td></tr><tr><td style="font-weight:bold;vertical-align:top;">session_id</td><td style="vertical-align:top;">:</td><td><div>10.0.0.232-cb63189d-1ded-4520-82ca-256ea6f410e8</div></td></tr><tr><td style="font-weight:bold;vertical-align:top;">session_id_name</td><td style="vertical-align:top;">:</td><td><div>session_id_wpstarter_gh</div></td></tr><tr><td style="font-weight:bold;vertical-align:top;">session_locked</td><td style="vertical-align:top;">:</td><td><div>True</div></td></tr><tr><td style="font-weight:bold;vertical-align:top;">session_masterapp</td><td style="vertical-align:top;">:</td><td><div>wpstarter_gh</div></td></tr><tr><td style="font-weight:bold;vertical-align:top;">session_new</td><td style="vertical-align:top;">:</td><td><div>False</div></td></tr><tr><td style="font-weight:bold;vertical-align:top;">session_storage_type</td><td style="vertical-align:top;">:</td><td><div>file</div></td></tr><tr><td style="font-weight:bold;vertical-align:top;">status</td><td style="vertical-align:top;">:</td><td><div>200</div></td></tr><tr><td style="font-weight:bold;vertical-align:top;">subtitle</td><td style="vertical-align:top;">:</td><td><div></div></td></tr><tr><td style="font-weight:bold;vertical-align:top;">title</td><td style="vertical-align:top;">:</td><td><div>w2p: Appadmin Manage</div></td></tr><tr><td style="font-weight:bold;vertical-align:top;">version</td><td style="vertical-align:top;">:</td><td><div>1.0</div></td></tr><tr><td style="font-weight:bold;vertical-align:top;">view</td><td style="vertical-align:top;">:</td><td><div>appadmin/manage.html</div></td></tr><tr><td style="font-weight:bold;vertical-align:top;">view_title</td><td style="vertical-align:top;">:</td><td><div>Appadmin Manage</div></td></tr></table></div>'
tRp264
sS'locals'
p265
(dp266
S'a'
S"('SELECT  t_menu.f_menu_master, t_menu.id FROM t_m... GROUP BY t_menu.id ORDER BY t_menu.f_menu_order;',)"
p267
sS'self'
p268
S'<pydal.adapters.sqlite.SQLiteAdapter object>'
p269
sS'b'
g21
sS'command'
p270
S"'SELECT  t_menu.f_menu_master, t_menu.id FROM t_m... GROUP BY t_menu.id ORDER BY t_menu.f_menu_order;'"
p271
sS't0'
p272
S'1494867836.678'
p273
sssS'traceback'
p274
S'Traceback (most recent call last):\n  File "C:\\Python\\web2py\\gluon\\restricted.py", line 227, in restricted\n    exec ccode in environment\n  File "C:\\Python\\web2py\\applications\\wpstarter_gh\\models\\menu.py", line 58, in <module>\n    orderby=db.t_menu.f_menu_order\n  File "C:\\Python\\web2py\\gluon\\packages\\dal\\pydal\\objects.py", line 2020, in select\n    return adapter.select(self.query, fields, attributes)\n  File "C:\\Python\\web2py\\gluon\\packages\\dal\\pydal\\adapters\\sqlite.py", line 123, in select\n    return super(SQLiteAdapter, self).select(query, fields, attributes)\n  File "C:\\Python\\web2py\\gluon\\packages\\dal\\pydal\\adapters\\base.py", line 1296, in select\n    return self._select_aux(sql,fields,attributes)\n  File "C:\\Python\\web2py\\gluon\\packages\\dal\\pydal\\adapters\\base.py", line 1253, in _select_aux\n    self.execute(sql)\n  File "C:\\Python\\web2py\\gluon\\packages\\dal\\pydal\\adapters\\base.py", line 1388, in execute\n    return self.log_execute(*a, **b)\n  File "C:\\Python\\web2py\\gluon\\packages\\dal\\pydal\\adapters\\base.py", line 1382, in log_execute\n    ret = self.get_cursor().execute(command, *a[1:], **b)\nOperationalError: no such column: t_menu_group.f_grupo\n'
p275
s.