(dp1
S'output'
p2
S"<type 'exceptions.AttributeError'> 'NoneType' object has no attribute 'add_class'"
p3
sS'layer'
p4
S'C:\\web2py\\applications\\wpstarter\\controllers/client.py'
p5
sS'code'
p6
S"\xef\xbb\xbf# -*- coding: utf-8 -*-\n\ndef index():\n    form = SQLFORM.grid(db.CLIENTES)\n    \n\n    for c in form.elements('select'): c.add_class('select2')\n    form.element(_id='CLIENTES_ESTADO').add_class('select2')\n    \n    return locals()\nresponse._vars=response._caller(index)\n"
p7
sS'snapshot'
p8
(dp9
sS'traceback'
p10
S'Traceback (most recent call last):\n  File "C:\\web2py\\gluon\\restricted.py", line 227, in restricted\n    exec ccode in environment\n  File "C:\\web2py\\applications\\wpstarter\\controllers/client.py", line 11, in <module>\n  File "C:\\web2py\\gluon\\globals.py", line 417, in <lambda>\n    self._caller = lambda f: f()\n  File "C:\\web2py\\applications\\wpstarter\\controllers/client.py", line 8, in index\n    form.element(_id=\'CLIENTES_ESTADO\').add_class(\'select2\')\nAttributeError: \'NoneType\' object has no attribute \'add_class\'\n'
p11
s.